

Microchip MPLAB XC8 Assembler V2.35 build 20211206165544 
                                                                                               Wed Jun 01 19:17:33 2022

Microchip MPLAB XC8 C Compiler v2.35 (Free license) build 20211206165544 Og1 
     1                           	processor	16F887
     2                           	pagewidth 120
     3                           	opt	flic
     4                           	psect	cinit,global,class=CODE,merge=1,delta=2
     5                           	psect	bssBANK0,global,class=BANK0,space=1,delta=1,noexec
     6                           	psect	bssBANK1,global,class=BANK1,space=1,delta=1,noexec
     7                           	psect	clrtext,global,class=CODE,delta=2
     8                           	psect	cstackBANK1,global,class=BANK1,space=1,delta=1,noexec
     9                           	psect	cstackCOMMON,global,class=COMMON,space=1,delta=1,noexec
    10                           	psect	cstackBANK0,global,class=BANK0,space=1,delta=1,noexec
    11                           	psect	maintext,global,class=CODE,split=1,delta=2
    12                           	psect	text1,local,class=CODE,merge=1,delta=2
    13                           	psect	text2,local,class=CODE,merge=1,delta=2
    14                           	psect	text3,local,class=CODE,merge=1,delta=2
    15                           	psect	text4,local,class=CODE,merge=1,delta=2
    16                           	psect	intentry,global,class=CODE,delta=2
    17                           	psect	text5,local,class=CODE,merge=1,delta=2
    18                           	psect	text6,local,class=CODE,merge=1,delta=2,group=1
    19                           	psect	text7,local,class=CODE,merge=1,delta=2,group=1
    20                           	psect	text8,local,class=CODE,merge=1,delta=2,group=1
    21                           	psect	text9,local,class=CODE,merge=1,delta=2,group=1
    22                           	psect	text10,local,class=CODE,merge=1,delta=2,group=1
    23                           	psect	text11,local,class=CODE,merge=1,delta=2,group=1
    24                           	psect	idloc,global,abs,ovrld,class=IDLOC,space=5,delta=2,noexec
    25                           	psect	config,global,abs,ovrld,class=CONFIG,space=4,delta=2,noexec
    26                           	dabs	1,0x7E,2
    27  0000                     
    28                           ; Version 2.40
    29                           ; Generated 17/11/2021 GMT
    30                           ; 
    31                           ; Copyright © 2021, Microchip Technology Inc. and its subsidiaries ("Microchip")
    32                           ; All rights reserved.
    33                           ; 
    34                           ; This software is developed by Microchip Technology Inc. and its subsidiaries ("Microch
      +                          ip").
    35                           ; 
    36                           ; Redistribution and use in source and binary forms, with or without modification, are
    37                           ; permitted provided that the following conditions are met:
    38                           ; 
    39                           ;     1. Redistributions of source code must retain the above copyright notice, this lis
      +                          t of
    40                           ;        conditions and the following disclaimer.
    41                           ; 
    42                           ;     2. Redistributions in binary form must reproduce the above copyright notice, this 
      +                          list
    43                           ;        of conditions and the following disclaimer in the documentation and/or other
    44                           ;        materials provided with the distribution. Publication is not required when
    45                           ;        this file is used in an embedded application.
    46                           ; 
    47                           ;     3. Microchip's name may not be used to endorse or promote products derived from th
      +                          is
    48                           ;        software without specific prior written permission.
    49                           ; 
    50                           ; THIS SOFTWARE IS PROVIDED BY MICROCHIP "AS IS" AND ANY EXPRESS OR IMPLIED WARRANTIES,
    51                           ; INCLUDING, BUT NOT LIMITED TO, THE IMPLIED WARRANTIES OF MERCHANTABILITY AND FITNESS F
      +                          OR
    52                           ; PURPOSE ARE DISCLAIMED.  IN NO EVENT SHALL MICROCHIP BE LIABLE FOR ANY DIRECT, INDIREC
      +                          T,
    53                           ; INCIDENTAL, SPECIAL, EXEMPLARY, OR CONSEQUENTIAL DAMAGES (INCLUDING BUT NOT LIMITED TO
    54                           ; PROCUREMENT OF SUBSTITUTE GOODS OR SERVICES; LOSS OF USE, DATA OR PROFITS; OR BUSINESS
    55                           ; INTERRUPTION) HOWSOEVER CAUSED AND ON ANY THEORY OF LIABILITY, WHETHER IN CONTRACT, ST
      +                          RICT
    56                           ; LIABILITY, OR TORT (INCLUDING NEGLIGENCE OR OTHERWISE) ARISING IN ANY WAY OUT OF THE U
      +                          SE OF
    57                           ; THIS SOFTWARE, EVEN IF ADVISED OF THE POSSIBILITY OF SUCH DAMAGE.
    58                           ; 
    59                           ; 
    60                           ; Code-generator required, PIC16F887 Definitions
    61                           ; 
    62                           ; SFR Addresses
    63  0000                     	;# 
    64  0001                     	;# 
    65  0002                     	;# 
    66  0003                     	;# 
    67  0004                     	;# 
    68  0005                     	;# 
    69  0006                     	;# 
    70  0007                     	;# 
    71  0008                     	;# 
    72  0009                     	;# 
    73  000A                     	;# 
    74  000B                     	;# 
    75  000C                     	;# 
    76  000D                     	;# 
    77  000E                     	;# 
    78  000E                     	;# 
    79  000F                     	;# 
    80  0010                     	;# 
    81  0011                     	;# 
    82  0012                     	;# 
    83  0013                     	;# 
    84  0014                     	;# 
    85  0015                     	;# 
    86  0015                     	;# 
    87  0016                     	;# 
    88  0017                     	;# 
    89  0018                     	;# 
    90  0019                     	;# 
    91  001A                     	;# 
    92  001B                     	;# 
    93  001B                     	;# 
    94  001C                     	;# 
    95  001D                     	;# 
    96  001E                     	;# 
    97  001F                     	;# 
    98  0081                     	;# 
    99  0085                     	;# 
   100  0086                     	;# 
   101  0087                     	;# 
   102  0088                     	;# 
   103  0089                     	;# 
   104  008C                     	;# 
   105  008D                     	;# 
   106  008E                     	;# 
   107  008F                     	;# 
   108  0090                     	;# 
   109  0091                     	;# 
   110  0092                     	;# 
   111  0093                     	;# 
   112  0093                     	;# 
   113  0093                     	;# 
   114  0094                     	;# 
   115  0095                     	;# 
   116  0096                     	;# 
   117  0097                     	;# 
   118  0098                     	;# 
   119  0099                     	;# 
   120  009A                     	;# 
   121  009B                     	;# 
   122  009C                     	;# 
   123  009D                     	;# 
   124  009E                     	;# 
   125  009F                     	;# 
   126  0105                     	;# 
   127  0107                     	;# 
   128  0108                     	;# 
   129  0109                     	;# 
   130  010C                     	;# 
   131  010C                     	;# 
   132  010D                     	;# 
   133  010E                     	;# 
   134  010F                     	;# 
   135  0185                     	;# 
   136  0187                     	;# 
   137  0188                     	;# 
   138  0189                     	;# 
   139  018C                     	;# 
   140  018D                     	;# 
   141  0000                     	;# 
   142  0001                     	;# 
   143  0002                     	;# 
   144  0003                     	;# 
   145  0004                     	;# 
   146  0005                     	;# 
   147  0006                     	;# 
   148  0007                     	;# 
   149  0008                     	;# 
   150  0009                     	;# 
   151  000A                     	;# 
   152  000B                     	;# 
   153  000C                     	;# 
   154  000D                     	;# 
   155  000E                     	;# 
   156  000E                     	;# 
   157  000F                     	;# 
   158  0010                     	;# 
   159  0011                     	;# 
   160  0012                     	;# 
   161  0013                     	;# 
   162  0014                     	;# 
   163  0015                     	;# 
   164  0015                     	;# 
   165  0016                     	;# 
   166  0017                     	;# 
   167  0018                     	;# 
   168  0019                     	;# 
   169  001A                     	;# 
   170  001B                     	;# 
   171  001B                     	;# 
   172  001C                     	;# 
   173  001D                     	;# 
   174  001E                     	;# 
   175  001F                     	;# 
   176  0081                     	;# 
   177  0085                     	;# 
   178  0086                     	;# 
   179  0087                     	;# 
   180  0088                     	;# 
   181  0089                     	;# 
   182  008C                     	;# 
   183  008D                     	;# 
   184  008E                     	;# 
   185  008F                     	;# 
   186  0090                     	;# 
   187  0091                     	;# 
   188  0092                     	;# 
   189  0093                     	;# 
   190  0093                     	;# 
   191  0093                     	;# 
   192  0094                     	;# 
   193  0095                     	;# 
   194  0096                     	;# 
   195  0097                     	;# 
   196  0098                     	;# 
   197  0099                     	;# 
   198  009A                     	;# 
   199  009B                     	;# 
   200  009C                     	;# 
   201  009D                     	;# 
   202  009E                     	;# 
   203  009F                     	;# 
   204  0105                     	;# 
   205  0107                     	;# 
   206  0108                     	;# 
   207  0109                     	;# 
   208  010C                     	;# 
   209  010C                     	;# 
   210  010D                     	;# 
   211  010E                     	;# 
   212  010F                     	;# 
   213  0185                     	;# 
   214  0187                     	;# 
   215  0188                     	;# 
   216  0189                     	;# 
   217  018C                     	;# 
   218  018D                     	;# 
   219  000D                     _PIR2bits	set	13
   220  0018                     _RCSTAbits	set	24
   221  0012                     _T2CONbits	set	18
   222  001D                     _CCP2CON	set	29
   223  0017                     _CCP1CON	set	23
   224  0014                     _SSPCONbits	set	20
   225  0009                     _PORTE	set	9
   226  0008                     _PORTD	set	8
   227  0007                     _PORTC	set	7
   228  0006                     _PORTB	set	6
   229  0005                     _PORTA	set	5
   230  0009                     _PORTEbits	set	9
   231  001A                     _RCREG	set	26
   232  0013                     _SSPBUF	set	19
   233  0008                     _PORTDbits	set	8
   234  001D                     _CCP2CONbits	set	29
   235  001B                     _CCPR2L	set	27
   236  0017                     _CCP1CONbits	set	23
   237  0015                     _CCPR1L	set	21
   238  001E                     _ADRESH	set	30
   239  001F                     _ADCON0bits	set	31
   240  000C                     _PIR1bits	set	12
   241  0006                     _PORTBbits	set	6
   242  000B                     _INTCONbits	set	11
   243  009A                     _SPBRGH	set	154
   244  0099                     _SPBRG	set	153
   245  0098                     _TXSTAbits	set	152
   246  0092                     _PR2	set	146
   247  0087                     _TRISCbits	set	135
   248  009F                     _ADCON1bits	set	159
   249  0096                     _IOCBbits	set	150
   250  0095                     _WPUBbits	set	149
   251  0081                     _OPTION_REGbits	set	129
   252  008C                     _PIE1bits	set	140
   253  0089                     _TRISE	set	137
   254  0088                     _TRISD	set	136
   255  0087                     _TRISC	set	135
   256  0086                     _TRISB	set	134
   257  0085                     _TRISA	set	133
   258  008F                     _OSCCONbits	set	143
   259  0094                     _SSPSTATbits	set	148
   260  010C                     _EEDAT	set	268
   261  010D                     _EEADR	set	269
   262  018D                     _EECON2	set	397
   263  018C                     _EECON1bits	set	396
   264  0187                     _BAUDCTLbits	set	391
   265  0189                     _ANSELH	set	393
   266  0188                     _ANSEL	set	392
   267                           
   268                           	psect	cinit
   269  0013                     start_initialization:	
   270                           ; #config settings
   271                           
   272  0013                     __initialization:
   273                           
   274                           ; Clear objects allocated to BANK0
   275  0013  1283               	bcf	3,5	;RP0=0, select bank0
   276  0014  1303               	bcf	3,6	;RP1=0, select bank0
   277  0015  01EE               	clrf	__pbssBANK0& (0+127)
   278  0016  01EF               	clrf	(__pbssBANK0+1)& (0+127)
   279                           
   280                           ; Clear objects allocated to BANK1
   281  0017  1383               	bcf	3,7	;select IRP bank0
   282  0018  30A0               	movlw	low __pbssBANK1
   283  0019  0084               	movwf	4
   284  001A  30B9               	movlw	low (__pbssBANK1+25)
   285  001B  120A  118A  27EE  120A  118A  	fcall	clear_ram0
   286  0020                     end_of_initialization:	
   287                           ;End of C runtime variable initialization code
   288                           
   289  0020                     __end_of__initialization:
   290  0020  0183               	clrf	3
   291  0021  120A  158A  2B97   	ljmp	_main	;jump to C main() function
   292                           
   293                           	psect	bssBANK0
   294  006E                     __pbssBANK0:
   295  006E                     _BANDERA_USART:
   296  006E                     	ds	1
   297  006F                     _VALORPOT_USART:
   298  006F                     	ds	1
   299                           
   300                           	psect	bssBANK1
   301  00A0                     __pbssBANK1:
   302  00A0                     _VALORES:
   303  00A0                     	ds	2
   304  00A2                     _POT_2_M:
   305  00A2                     	ds	2
   306  00A4                     _POT_1_M:
   307  00A4                     	ds	2
   308  00A6                     _BANDERA_MODO2A0:
   309  00A6                     	ds	1
   310  00A7                     _VALOR_USART:
   311  00A7                     	ds	1
   312  00A8                     _CONT3:
   313  00A8                     	ds	1
   314  00A9                     _CONT:
   315  00A9                     	ds	1
   316  00AA                     _SELECCION_SERVO:
   317  00AA                     	ds	1
   318  00AB                     _BANDERA_R:
   319  00AB                     	ds	1
   320  00AC                     _BANDERA_E2:
   321  00AC                     	ds	1
   322  00AD                     _BANDERA_E1:
   323  00AD                     	ds	1
   324  00AE                     _BANDERA_L2:
   325  00AE                     	ds	1
   326  00AF                     _BANDERA_L1:
   327  00AF                     	ds	1
   328  00B0                     _POT_4_E:
   329  00B0                     	ds	1
   330  00B1                     _POT_3_E:
   331  00B1                     	ds	1
   332  00B2                     _POT_2_E:
   333  00B2                     	ds	1
   334  00B3                     _POT_1_E:
   335  00B3                     	ds	1
   336  00B4                     _POT_4:
   337  00B4                     	ds	1
   338  00B5                     _POT_3:
   339  00B5                     	ds	1
   340  00B6                     _POT_2:
   341  00B6                     	ds	1
   342  00B7                     _POT_1:
   343  00B7                     	ds	1
   344  00B8                     _MODO:
   345  00B8                     	ds	1
   346                           
   347                           	psect	clrtext
   348  07EE                     clear_ram0:	
   349                           ;	Called with FSR containing the base address, and
   350                           ;	W with the last address+1
   351                           
   352  07EE  0064               	clrwdt	;clear the watchdog before getting into this loop
   353  07EF                     clrloop0:
   354  07EF  0180               	clrf	0	;clear RAM location pointed to by FSR
   355  07F0  0A84               	incf	4,f	;increment pointer
   356  07F1  0604               	xorwf	4,w	;XOR with final address
   357  07F2  1903               	btfsc	3,2	;have we reached the end yet?
   358  07F3  3400               	retlw	0	;all done for this memory range, return
   359  07F4  0604               	xorwf	4,w	;XOR again to restore value
   360  07F5  2FEF               	goto	clrloop0	;do the next byte
   361                           
   362                           	psect	cstackBANK1
   363  00B9                     __pcstackBANK1:
   364  00B9                     ??___fltol:
   365                           
   366                           ; 1 bytes @ 0x0
   367  00B9                     	ds	5
   368  00BE                     ?_map:
   369  00BE                     map@x:	
   370                           ; 2 bytes @ 0x5
   371                           
   372                           
   373                           ; 2 bytes @ 0x5
   374  00BE                     	ds	2
   375  00C0                     map@x0:
   376                           
   377                           ; 1 bytes @ 0x7
   378  00C0                     	ds	1
   379  00C1                     map@x1:
   380                           
   381                           ; 1 bytes @ 0x8
   382  00C1                     	ds	1
   383  00C2                     map@y0:
   384                           
   385                           ; 2 bytes @ 0x9
   386  00C2                     	ds	2
   387  00C4                     map@y1:
   388                           
   389                           ; 2 bytes @ 0xB
   390  00C4                     	ds	2
   391  00C6                     ??_isr:
   392                           
   393                           ; 1 bytes @ 0xD
   394  00C6                     	ds	8
   395  00CE                     ??_setup:
   396  00CE                     ?_ESCRITURA_EEPROM:	
   397                           ; 1 bytes @ 0x15
   398                           
   399  00CE                     ??_LECTURA_EEPROM:	
   400                           ; 1 bytes @ 0x15
   401                           
   402  00CE                     LECTURA_EEPROM@DIRECCION:	
   403                           ; 1 bytes @ 0x15
   404                           
   405  00CE                     ESCRITURA_EEPROM@DATA:	
   406                           ; 1 bytes @ 0x15
   407                           
   408                           
   409                           ; 1 bytes @ 0x15
   410  00CE                     	ds	1
   411  00CF                     ??_ESCRITURA_EEPROM:
   412  00CF                     ESCRITURA_EEPROM@DIRECCION:	
   413                           ; 1 bytes @ 0x16
   414                           
   415                           
   416                           ; 1 bytes @ 0x16
   417  00CF                     	ds	1
   418  00D0                     ??_main:
   419                           
   420                           ; 1 bytes @ 0x17
   421  00D0                     	ds	1
   422                           
   423                           	psect	cstackCOMMON
   424  0070                     __pcstackCOMMON:
   425  0070                     ?_setup:
   426  0070                     ?_LECTURA_EEPROM:	
   427                           ; 1 bytes @ 0x0
   428                           
   429  0070                     ?_isr:	
   430                           ; 1 bytes @ 0x0
   431                           
   432  0070                     ?_main:	
   433                           ; 1 bytes @ 0x0
   434                           
   435  0070                     ?__Umul8_16:	
   436                           ; 1 bytes @ 0x0
   437                           
   438  0070                     ?___xxtofl:	
   439                           ; 2 bytes @ 0x0
   440                           
   441  0070                     __Umul8_16@multiplicand:	
   442                           ; 4 bytes @ 0x0
   443                           
   444  0070                     ___xxtofl@val:	
   445                           ; 1 bytes @ 0x0
   446                           
   447                           
   448                           ; 4 bytes @ 0x0
   449  0070                     	ds	2
   450  0072                     ??__Umul8_16:
   451                           
   452                           ; 1 bytes @ 0x2
   453  0072                     	ds	2
   454  0074                     ??___xxtofl:
   455  0074                     __Umul8_16@product:	
   456                           ; 1 bytes @ 0x4
   457                           
   458                           
   459                           ; 2 bytes @ 0x4
   460  0074                     	ds	2
   461  0076                     __Umul8_16@word_mpld:
   462                           
   463                           ; 2 bytes @ 0x6
   464  0076                     	ds	2
   465  0078                     __Umul8_16@multiplier:
   466  0078                     ___xxtofl@sign:	
   467                           ; 1 bytes @ 0x8
   468                           
   469                           
   470                           ; 1 bytes @ 0x8
   471  0078                     	ds	1
   472  0079                     ___xxtofl@exp:
   473                           
   474                           ; 1 bytes @ 0x9
   475  0079                     	ds	1
   476  007A                     ___xxtofl@arg:
   477                           
   478                           ; 4 bytes @ 0xA
   479  007A                     	ds	4
   480  007E                     ??_map:
   481                           
   482                           	psect	cstackBANK0
   483  0020                     __pcstackBANK0:	
   484                           ; 1 bytes @ 0xE
   485                           
   486  0020                     ?___fldiv:
   487  0020                     ___fldiv@a:	
   488                           ; 4 bytes @ 0x0
   489                           
   490                           
   491                           ; 4 bytes @ 0x0
   492  0020                     	ds	4
   493  0024                     ___fldiv@b:
   494                           
   495                           ; 4 bytes @ 0x4
   496  0024                     	ds	4
   497  0028                     ??___fldiv:
   498                           
   499                           ; 1 bytes @ 0x8
   500  0028                     	ds	5
   501  002D                     ___fldiv@rem:
   502                           
   503                           ; 4 bytes @ 0xD
   504  002D                     	ds	4
   505  0031                     ___fldiv@sign:
   506                           
   507                           ; 1 bytes @ 0x11
   508  0031                     	ds	1
   509  0032                     ___fldiv@new_exp:
   510                           
   511                           ; 2 bytes @ 0x12
   512  0032                     	ds	2
   513  0034                     ___fldiv@grs:
   514                           
   515                           ; 4 bytes @ 0x14
   516  0034                     	ds	4
   517  0038                     ___fldiv@bexp:
   518                           
   519                           ; 1 bytes @ 0x18
   520  0038                     	ds	1
   521  0039                     ___fldiv@aexp:
   522                           
   523                           ; 1 bytes @ 0x19
   524  0039                     	ds	1
   525  003A                     ?___flmul:
   526  003A                     ___flmul@b:	
   527                           ; 4 bytes @ 0x1A
   528                           
   529                           
   530                           ; 4 bytes @ 0x1A
   531  003A                     	ds	4
   532  003E                     ___flmul@a:
   533                           
   534                           ; 4 bytes @ 0x1E
   535  003E                     	ds	4
   536  0042                     ??___flmul:
   537                           
   538                           ; 1 bytes @ 0x22
   539  0042                     	ds	5
   540  0047                     ___flmul@sign:
   541                           
   542                           ; 1 bytes @ 0x27
   543  0047                     	ds	1
   544  0048                     ___flmul@grs:
   545                           
   546                           ; 4 bytes @ 0x28
   547  0048                     	ds	4
   548  004C                     ___flmul@aexp:
   549                           
   550                           ; 1 bytes @ 0x2C
   551  004C                     	ds	1
   552  004D                     ___flmul@bexp:
   553                           
   554                           ; 1 bytes @ 0x2D
   555  004D                     	ds	1
   556  004E                     ___flmul@prod:
   557                           
   558                           ; 4 bytes @ 0x2E
   559  004E                     	ds	4
   560  0052                     ___flmul@temp:
   561                           
   562                           ; 2 bytes @ 0x32
   563  0052                     	ds	2
   564  0054                     ?___fladd:
   565  0054                     ___fladd@b:	
   566                           ; 4 bytes @ 0x34
   567                           
   568                           
   569                           ; 4 bytes @ 0x34
   570  0054                     	ds	4
   571  0058                     ___fladd@a:
   572                           
   573                           ; 4 bytes @ 0x38
   574  0058                     	ds	4
   575  005C                     ??___fladd:
   576                           
   577                           ; 1 bytes @ 0x3C
   578  005C                     	ds	8
   579  0064                     ___fladd@signs:
   580                           
   581                           ; 1 bytes @ 0x44
   582  0064                     	ds	1
   583  0065                     ___fladd@aexp:
   584                           
   585                           ; 1 bytes @ 0x45
   586  0065                     	ds	1
   587  0066                     ___fladd@bexp:
   588                           
   589                           ; 1 bytes @ 0x46
   590  0066                     	ds	1
   591  0067                     ___fladd@grs:
   592                           
   593                           ; 1 bytes @ 0x47
   594  0067                     	ds	1
   595  0068                     ?___fltol:
   596  0068                     ___fltol@f1:	
   597                           ; 4 bytes @ 0x48
   598                           
   599                           
   600                           ; 4 bytes @ 0x48
   601  0068                     	ds	4
   602  006C                     ___fltol@sign1:
   603                           
   604                           ; 1 bytes @ 0x4C
   605  006C                     	ds	1
   606  006D                     ___fltol@exp1:
   607                           
   608                           ; 1 bytes @ 0x4D
   609  006D                     	ds	1
   610                           
   611                           	psect	maintext
   612  0B97                     __pmaintext:	
   613 ;;
   614 ;;Main: autosize = 0, tempsize = 1, incstack = 0, save=0
   615 ;;
   616 ;; *************** function _main *****************
   617 ;; Defined at:
   618 ;;		line 260 in file "Maestro4EEPROMEUSART.c"
   619 ;; Parameters:    Size  Location     Type
   620 ;;		None
   621 ;; Auto vars:     Size  Location     Type
   622 ;;		None
   623 ;; Return value:  Size  Location     Type
   624 ;;                  1    wreg      void 
   625 ;; Registers used:
   626 ;;		wreg, status,2, status,0, pclath, cstack
   627 ;; Tracked objects:
   628 ;;		On entry : B00/0
   629 ;;		On exit  : 0/0
   630 ;;		Unchanged: 0/0
   631 ;; Data sizes:     COMMON   BANK0   BANK1   BANK3   BANK2
   632 ;;      Params:         0       0       0       0       0
   633 ;;      Locals:         0       0       0       0       0
   634 ;;      Temps:          0       0       1       0       0
   635 ;;      Totals:         0       0       1       0       0
   636 ;;Total ram usage:        1 bytes
   637 ;; Hardware stack levels required when called: 5
   638 ;; This function calls:
   639 ;;		_ESCRITURA_EEPROM
   640 ;;		_LECTURA_EEPROM
   641 ;;		_setup
   642 ;; This function is called by:
   643 ;;		Startup code after reset
   644 ;; This function uses a non-reentrant model
   645 ;;
   646                           
   647  0B97                     _main:	
   648                           ;psect for function _main
   649                           
   650  0B97                     l2806:	
   651                           ;incstack = 0
   652                           ; Regs used in _main: [wreg+status,2+status,0+pclath+cstack]
   653                           
   654                           
   655                           ;Maestro4EEPROMEUSART.c: 261:     setup();
   656  0B97  120A  158A  206E  120A  158A  	fcall	_setup
   657  0B9C                     l2808:
   658                           
   659                           ;Maestro4EEPROMEUSART.c: 263:         if (ADCON0bits.GO == 0){
   660  0B9C  1283               	bcf	3,5	;RP0=0, select bank0
   661  0B9D  1303               	bcf	3,6	;RP1=0, select bank0
   662  0B9E  189F               	btfsc	31,1	;volatile
   663  0B9F  2BA1               	goto	u3931
   664  0BA0  2BA2               	goto	u3930
   665  0BA1                     u3931:
   666  0BA1  2BF8               	goto	l2830
   667  0BA2                     u3930:
   668  0BA2                     l2810:
   669                           
   670                           ;Maestro4EEPROMEUSART.c: 264:             if(ADCON0bits.CHS == 0){
   671  0BA2  0C1F               	rrf	31,w	;volatile
   672  0BA3  1683               	bsf	3,5	;RP0=1, select bank1
   673  0BA4  1303               	bcf	3,6	;RP1=0, select bank1
   674  0BA5  00D0               	movwf	??_main^(0+128)
   675  0BA6  0C50               	rrf	??_main^(0+128),w
   676  0BA7  390F               	andlw	15
   677  0BA8  3A00               	xorlw	0
   678  0BA9  1D03               	skipz
   679  0BAA  2BAC               	goto	u3941
   680  0BAB  2BAD               	goto	u3940
   681  0BAC                     u3941:
   682  0BAC  2BB4               	goto	l2814
   683  0BAD                     u3940:
   684  0BAD                     l2812:
   685                           
   686                           ;Maestro4EEPROMEUSART.c: 265:                 ADCON0bits.CHS = 1;
   687  0BAD  1283               	bcf	3,5	;RP0=0, select bank0
   688  0BAE  1303               	bcf	3,6	;RP1=0, select bank0
   689  0BAF  081F               	movf	31,w	;volatile
   690  0BB0  39C3               	andlw	-61
   691  0BB1  3804               	iorlw	4
   692  0BB2  009F               	movwf	31	;volatile
   693                           
   694                           ;Maestro4EEPROMEUSART.c: 266:             }
   695  0BB3  2BEE               	goto	l2826
   696  0BB4                     l2814:
   697  0BB4  1283               	bcf	3,5	;RP0=0, select bank0
   698  0BB5  1303               	bcf	3,6	;RP1=0, select bank0
   699  0BB6  0C1F               	rrf	31,w	;volatile
   700  0BB7  1683               	bsf	3,5	;RP0=1, select bank1
   701  0BB8  1303               	bcf	3,6	;RP1=0, select bank1
   702  0BB9  00D0               	movwf	??_main^(0+128)
   703  0BBA  0C50               	rrf	??_main^(0+128),w
   704  0BBB  390F               	andlw	15
   705  0BBC  3A01               	xorlw	1
   706  0BBD  1D03               	skipz
   707  0BBE  2BC0               	goto	u3951
   708  0BBF  2BC1               	goto	u3950
   709  0BC0                     u3951:
   710  0BC0  2BC8               	goto	l2818
   711  0BC1                     u3950:
   712  0BC1                     l2816:
   713                           
   714                           ;Maestro4EEPROMEUSART.c: 268:                 ADCON0bits.CHS = 2;
   715  0BC1  1283               	bcf	3,5	;RP0=0, select bank0
   716  0BC2  1303               	bcf	3,6	;RP1=0, select bank0
   717  0BC3  081F               	movf	31,w	;volatile
   718  0BC4  39C3               	andlw	-61
   719  0BC5  3808               	iorlw	8
   720  0BC6  009F               	movwf	31	;volatile
   721                           
   722                           ;Maestro4EEPROMEUSART.c: 269:             }
   723  0BC7  2BEE               	goto	l2826
   724  0BC8                     l2818:
   725  0BC8  1283               	bcf	3,5	;RP0=0, select bank0
   726  0BC9  1303               	bcf	3,6	;RP1=0, select bank0
   727  0BCA  0C1F               	rrf	31,w	;volatile
   728  0BCB  1683               	bsf	3,5	;RP0=1, select bank1
   729  0BCC  1303               	bcf	3,6	;RP1=0, select bank1
   730  0BCD  00D0               	movwf	??_main^(0+128)
   731  0BCE  0C50               	rrf	??_main^(0+128),w
   732  0BCF  390F               	andlw	15
   733  0BD0  3A02               	xorlw	2
   734  0BD1  1D03               	skipz
   735  0BD2  2BD4               	goto	u3961
   736  0BD3  2BD5               	goto	u3960
   737  0BD4                     u3961:
   738  0BD4  2BDC               	goto	l2822
   739  0BD5                     u3960:
   740  0BD5                     l2820:
   741                           
   742                           ;Maestro4EEPROMEUSART.c: 271:                 ADCON0bits.CHS = 3;
   743  0BD5  1283               	bcf	3,5	;RP0=0, select bank0
   744  0BD6  1303               	bcf	3,6	;RP1=0, select bank0
   745  0BD7  081F               	movf	31,w	;volatile
   746  0BD8  39C3               	andlw	-61
   747  0BD9  380C               	iorlw	12
   748  0BDA  009F               	movwf	31	;volatile
   749                           
   750                           ;Maestro4EEPROMEUSART.c: 272:             }
   751  0BDB  2BEE               	goto	l2826
   752  0BDC                     l2822:
   753  0BDC  1283               	bcf	3,5	;RP0=0, select bank0
   754  0BDD  1303               	bcf	3,6	;RP1=0, select bank0
   755  0BDE  0C1F               	rrf	31,w	;volatile
   756  0BDF  1683               	bsf	3,5	;RP0=1, select bank1
   757  0BE0  1303               	bcf	3,6	;RP1=0, select bank1
   758  0BE1  00D0               	movwf	??_main^(0+128)
   759  0BE2  0C50               	rrf	??_main^(0+128),w
   760  0BE3  390F               	andlw	15
   761  0BE4  3A03               	xorlw	3
   762  0BE5  1D03               	skipz
   763  0BE6  2BE8               	goto	u3971
   764  0BE7  2BE9               	goto	u3970
   765  0BE8                     u3971:
   766  0BE8  2BEE               	goto	l243
   767  0BE9                     u3970:
   768  0BE9                     l2824:
   769                           
   770                           ;Maestro4EEPROMEUSART.c: 274:                 ADCON0bits.CHS = 0;
   771  0BE9  30C3               	movlw	-61
   772  0BEA  1283               	bcf	3,5	;RP0=0, select bank0
   773  0BEB  1303               	bcf	3,6	;RP1=0, select bank0
   774  0BEC  059F               	andwf	31,f	;volatile
   775  0BED  2BEE               	goto	l2826
   776  0BEE                     l243:
   777  0BEE                     l2826:
   778                           
   779                           ;Maestro4EEPROMEUSART.c: 276:              _delay((unsigned long)((40)*(1000000/4000000.
      +                          0)));
   780  0BEE  3002               	movlw	2
   781  0BEF  1683               	bsf	3,5	;RP0=1, select bank1
   782  0BF0  1303               	bcf	3,6	;RP1=0, select bank1
   783  0BF1  00D0               	movwf	??_main^(0+128)
   784  0BF2                     u4077:
   785  0BF2  0BD0               	decfsz	??_main^(0+128),f
   786  0BF3  2BF2               	goto	u4077
   787  0BF4  0000               	nop
   788  0BF5                     l2828:
   789                           
   790                           ;Maestro4EEPROMEUSART.c: 277:             ADCON0bits.GO = 1;
   791  0BF5  1283               	bcf	3,5	;RP0=0, select bank0
   792  0BF6  1303               	bcf	3,6	;RP1=0, select bank0
   793  0BF7  149F               	bsf	31,1	;volatile
   794  0BF8                     l2830:
   795                           
   796                           ;Maestro4EEPROMEUSART.c: 280:         if(CONT > 4){
   797  0BF8  3005               	movlw	5
   798  0BF9  1683               	bsf	3,5	;RP0=1, select bank1
   799  0BFA  1303               	bcf	3,6	;RP1=0, select bank1
   800  0BFB  0229               	subwf	_CONT^(0+128),w
   801  0BFC  1C03               	skipc
   802  0BFD  2BFF               	goto	u3981
   803  0BFE  2C00               	goto	u3980
   804  0BFF                     u3981:
   805  0BFF  2C02               	goto	l2834
   806  0C00                     u3980:
   807  0C00                     l2832:
   808                           
   809                           ;Maestro4EEPROMEUSART.c: 281:             CONT = 0;
   810  0C00  01A9               	clrf	_CONT^(0+128)
   811                           
   812                           ;Maestro4EEPROMEUSART.c: 282:             BANDERA_R = 0;
   813  0C01  01AB               	clrf	_BANDERA_R^(0+128)
   814  0C02                     l2834:
   815                           
   816                           ;Maestro4EEPROMEUSART.c: 285:         if(CONT3 > 4){
   817  0C02  3005               	movlw	5
   818  0C03  0228               	subwf	_CONT3^(0+128),w
   819  0C04  1C03               	skipc
   820  0C05  2C07               	goto	u3991
   821  0C06  2C08               	goto	u3990
   822  0C07                     u3991:
   823  0C07  2C0A               	goto	l2838
   824  0C08                     u3990:
   825  0C08                     l2836:
   826                           
   827                           ;Maestro4EEPROMEUSART.c: 286:             CONT3 = 0;
   828  0C08  01A8               	clrf	_CONT3^(0+128)
   829                           
   830                           ;Maestro4EEPROMEUSART.c: 287:             BANDERA_MODO2A0 = 0;
   831  0C09  01A6               	clrf	_BANDERA_MODO2A0^(0+128)
   832  0C0A                     l2838:
   833                           
   834                           ;Maestro4EEPROMEUSART.c: 290:         if (MODO == 0){
   835  0C0A  0838               	movf	_MODO^(0+128),w
   836  0C0B  1D03               	btfss	3,2
   837  0C0C  2C0E               	goto	u4001
   838  0C0D  2C0F               	goto	u4000
   839  0C0E                     u4001:
   840  0C0E  2CB9               	goto	l2878
   841  0C0F                     u4000:
   842  0C0F                     l2840:
   843                           
   844                           ;Maestro4EEPROMEUSART.c: 291:             if (BANDERA_E1 == 1){
   845  0C0F  032D               	decf	_BANDERA_E1^(0+128),w
   846  0C10  1D03               	btfss	3,2
   847  0C11  2C13               	goto	u4011
   848  0C12  2C14               	goto	u4010
   849  0C13                     u4011:
   850  0C13  2C61               	goto	l2856
   851  0C14                     u4010:
   852  0C14                     l2842:
   853                           
   854                           ;Maestro4EEPROMEUSART.c: 292:                 ESCRITURA_EEPROM(1, POT_1);
   855  0C14  0837               	movf	_POT_1^(0+128),w
   856  0C15  00D0               	movwf	??_main^(0+128)
   857  0C16  0850               	movf	??_main^(0+128),w
   858  0C17  00CE               	movwf	ESCRITURA_EEPROM@DATA^(0+128)
   859  0C18  3001               	movlw	1
   860  0C19  120A  158A  204A  120A  158A  	fcall	_ESCRITURA_EEPROM
   861  0C1E                     l2844:
   862                           
   863                           ;Maestro4EEPROMEUSART.c: 293:                 _delay((unsigned long)((1)*(1000000/4000.0
      +                          )));
   864  0C1E  3052               	movlw	82
   865  0C1F  1683               	bsf	3,5	;RP0=1, select bank1
   866  0C20  1303               	bcf	3,6	;RP1=0, select bank1
   867  0C21  00D0               	movwf	??_main^(0+128)
   868  0C22                     u4087:
   869  0C22  0BD0               	decfsz	??_main^(0+128),f
   870  0C23  2C22               	goto	u4087
   871  0C24  0000               	nop
   872  0C25                     l2846:
   873                           
   874                           ;Maestro4EEPROMEUSART.c: 294:                 ESCRITURA_EEPROM(2, POT_2);
   875  0C25  1683               	bsf	3,5	;RP0=1, select bank1
   876  0C26  1303               	bcf	3,6	;RP1=0, select bank1
   877  0C27  0836               	movf	_POT_2^(0+128),w
   878  0C28  00D0               	movwf	??_main^(0+128)
   879  0C29  0850               	movf	??_main^(0+128),w
   880  0C2A  00CE               	movwf	ESCRITURA_EEPROM@DATA^(0+128)
   881  0C2B  3002               	movlw	2
   882  0C2C  120A  158A  204A  120A  158A  	fcall	_ESCRITURA_EEPROM
   883                           
   884                           ;Maestro4EEPROMEUSART.c: 295:                 _delay((unsigned long)((1)*(1000000/4000.0
      +                          )));
   885  0C31  3052               	movlw	82
   886  0C32  1683               	bsf	3,5	;RP0=1, select bank1
   887  0C33  1303               	bcf	3,6	;RP1=0, select bank1
   888  0C34  00D0               	movwf	??_main^(0+128)
   889  0C35                     u4097:
   890  0C35  0BD0               	decfsz	??_main^(0+128),f
   891  0C36  2C35               	goto	u4097
   892  0C37  0000               	nop
   893  0C38                     l2848:
   894                           
   895                           ;Maestro4EEPROMEUSART.c: 296:                 ESCRITURA_EEPROM(3, POT_3);
   896  0C38  1683               	bsf	3,5	;RP0=1, select bank1
   897  0C39  1303               	bcf	3,6	;RP1=0, select bank1
   898  0C3A  0835               	movf	_POT_3^(0+128),w
   899  0C3B  00D0               	movwf	??_main^(0+128)
   900  0C3C  0850               	movf	??_main^(0+128),w
   901  0C3D  00CE               	movwf	ESCRITURA_EEPROM@DATA^(0+128)
   902  0C3E  3003               	movlw	3
   903  0C3F  120A  158A  204A  120A  158A  	fcall	_ESCRITURA_EEPROM
   904  0C44                     l2850:
   905                           
   906                           ;Maestro4EEPROMEUSART.c: 297:                 _delay((unsigned long)((1)*(1000000/4000.0
      +                          )));
   907  0C44  3052               	movlw	82
   908  0C45  1683               	bsf	3,5	;RP0=1, select bank1
   909  0C46  1303               	bcf	3,6	;RP1=0, select bank1
   910  0C47  00D0               	movwf	??_main^(0+128)
   911  0C48                     u4107:
   912  0C48  0BD0               	decfsz	??_main^(0+128),f
   913  0C49  2C48               	goto	u4107
   914  0C4A  0000               	nop
   915                           
   916                           ;Maestro4EEPROMEUSART.c: 298:                 ESCRITURA_EEPROM(4, POT_4);
   917  0C4B  1683               	bsf	3,5	;RP0=1, select bank1
   918  0C4C  1303               	bcf	3,6	;RP1=0, select bank1
   919  0C4D  0834               	movf	_POT_4^(0+128),w
   920  0C4E  00D0               	movwf	??_main^(0+128)
   921  0C4F  0850               	movf	??_main^(0+128),w
   922  0C50  00CE               	movwf	ESCRITURA_EEPROM@DATA^(0+128)
   923  0C51  3004               	movlw	4
   924  0C52  120A  158A  204A  120A  158A  	fcall	_ESCRITURA_EEPROM
   925  0C57                     l2852:
   926                           
   927                           ;Maestro4EEPROMEUSART.c: 299:                 _delay((unsigned long)((1)*(1000000/4000.0
      +                          )));
   928  0C57  3052               	movlw	82
   929  0C58  1683               	bsf	3,5	;RP0=1, select bank1
   930  0C59  1303               	bcf	3,6	;RP1=0, select bank1
   931  0C5A  00D0               	movwf	??_main^(0+128)
   932  0C5B                     u4117:
   933  0C5B  0BD0               	decfsz	??_main^(0+128),f
   934  0C5C  2C5B               	goto	u4117
   935  0C5D  0000               	nop
   936  0C5E                     l2854:
   937                           
   938                           ;Maestro4EEPROMEUSART.c: 301:                 BANDERA_E1 = 0;
   939  0C5E  1683               	bsf	3,5	;RP0=1, select bank1
   940  0C5F  1303               	bcf	3,6	;RP1=0, select bank1
   941  0C60  01AD               	clrf	_BANDERA_E1^(0+128)
   942  0C61                     l2856:
   943                           
   944                           ;Maestro4EEPROMEUSART.c: 303:             if(BANDERA_E2 == 1){
   945  0C61  032C               	decf	_BANDERA_E2^(0+128),w
   946  0C62  1D03               	btfss	3,2
   947  0C63  2C65               	goto	u4021
   948  0C64  2C66               	goto	u4020
   949  0C65                     u4021:
   950  0C65  2CB3               	goto	l2872
   951  0C66                     u4020:
   952  0C66                     l2858:
   953                           
   954                           ;Maestro4EEPROMEUSART.c: 304:                 ESCRITURA_EEPROM(5, POT_1);
   955  0C66  0837               	movf	_POT_1^(0+128),w
   956  0C67  00D0               	movwf	??_main^(0+128)
   957  0C68  0850               	movf	??_main^(0+128),w
   958  0C69  00CE               	movwf	ESCRITURA_EEPROM@DATA^(0+128)
   959  0C6A  3005               	movlw	5
   960  0C6B  120A  158A  204A  120A  158A  	fcall	_ESCRITURA_EEPROM
   961  0C70                     l2860:
   962                           
   963                           ;Maestro4EEPROMEUSART.c: 305:                 _delay((unsigned long)((1)*(1000000/4000.0
      +                          )));
   964  0C70  3052               	movlw	82
   965  0C71  1683               	bsf	3,5	;RP0=1, select bank1
   966  0C72  1303               	bcf	3,6	;RP1=0, select bank1
   967  0C73  00D0               	movwf	??_main^(0+128)
   968  0C74                     u4127:
   969  0C74  0BD0               	decfsz	??_main^(0+128),f
   970  0C75  2C74               	goto	u4127
   971  0C76  0000               	nop
   972  0C77                     l2862:
   973                           
   974                           ;Maestro4EEPROMEUSART.c: 306:                 ESCRITURA_EEPROM(6, POT_2);
   975  0C77  1683               	bsf	3,5	;RP0=1, select bank1
   976  0C78  1303               	bcf	3,6	;RP1=0, select bank1
   977  0C79  0836               	movf	_POT_2^(0+128),w
   978  0C7A  00D0               	movwf	??_main^(0+128)
   979  0C7B  0850               	movf	??_main^(0+128),w
   980  0C7C  00CE               	movwf	ESCRITURA_EEPROM@DATA^(0+128)
   981  0C7D  3006               	movlw	6
   982  0C7E  120A  158A  204A  120A  158A  	fcall	_ESCRITURA_EEPROM
   983                           
   984                           ;Maestro4EEPROMEUSART.c: 307:                 _delay((unsigned long)((1)*(1000000/4000.0
      +                          )));
   985  0C83  3052               	movlw	82
   986  0C84  1683               	bsf	3,5	;RP0=1, select bank1
   987  0C85  1303               	bcf	3,6	;RP1=0, select bank1
   988  0C86  00D0               	movwf	??_main^(0+128)
   989  0C87                     u4137:
   990  0C87  0BD0               	decfsz	??_main^(0+128),f
   991  0C88  2C87               	goto	u4137
   992  0C89  0000               	nop
   993  0C8A                     l2864:
   994                           
   995                           ;Maestro4EEPROMEUSART.c: 308:                 ESCRITURA_EEPROM(7, POT_3);
   996  0C8A  1683               	bsf	3,5	;RP0=1, select bank1
   997  0C8B  1303               	bcf	3,6	;RP1=0, select bank1
   998  0C8C  0835               	movf	_POT_3^(0+128),w
   999  0C8D  00D0               	movwf	??_main^(0+128)
  1000  0C8E  0850               	movf	??_main^(0+128),w
  1001  0C8F  00CE               	movwf	ESCRITURA_EEPROM@DATA^(0+128)
  1002  0C90  3007               	movlw	7
  1003  0C91  120A  158A  204A  120A  158A  	fcall	_ESCRITURA_EEPROM
  1004  0C96                     l2866:
  1005                           
  1006                           ;Maestro4EEPROMEUSART.c: 309:                 _delay((unsigned long)((1)*(1000000/4000.0
      +                          )));
  1007  0C96  3052               	movlw	82
  1008  0C97  1683               	bsf	3,5	;RP0=1, select bank1
  1009  0C98  1303               	bcf	3,6	;RP1=0, select bank1
  1010  0C99  00D0               	movwf	??_main^(0+128)
  1011  0C9A                     u4147:
  1012  0C9A  0BD0               	decfsz	??_main^(0+128),f
  1013  0C9B  2C9A               	goto	u4147
  1014  0C9C  0000               	nop
  1015                           
  1016                           ;Maestro4EEPROMEUSART.c: 310:                 ESCRITURA_EEPROM(8, POT_4);
  1017  0C9D  1683               	bsf	3,5	;RP0=1, select bank1
  1018  0C9E  1303               	bcf	3,6	;RP1=0, select bank1
  1019  0C9F  0834               	movf	_POT_4^(0+128),w
  1020  0CA0  00D0               	movwf	??_main^(0+128)
  1021  0CA1  0850               	movf	??_main^(0+128),w
  1022  0CA2  00CE               	movwf	ESCRITURA_EEPROM@DATA^(0+128)
  1023  0CA3  3008               	movlw	8
  1024  0CA4  120A  158A  204A  120A  158A  	fcall	_ESCRITURA_EEPROM
  1025  0CA9                     l2868:
  1026                           
  1027                           ;Maestro4EEPROMEUSART.c: 311:                 _delay((unsigned long)((1)*(1000000/4000.0
      +                          )));
  1028  0CA9  3052               	movlw	82
  1029  0CAA  1683               	bsf	3,5	;RP0=1, select bank1
  1030  0CAB  1303               	bcf	3,6	;RP1=0, select bank1
  1031  0CAC  00D0               	movwf	??_main^(0+128)
  1032  0CAD                     u4157:
  1033  0CAD  0BD0               	decfsz	??_main^(0+128),f
  1034  0CAE  2CAD               	goto	u4157
  1035  0CAF  0000               	nop
  1036  0CB0                     l2870:
  1037                           
  1038                           ;Maestro4EEPROMEUSART.c: 313:                 BANDERA_E2 = 0;
  1039  0CB0  1683               	bsf	3,5	;RP0=1, select bank1
  1040  0CB1  1303               	bcf	3,6	;RP1=0, select bank1
  1041  0CB2  01AC               	clrf	_BANDERA_E2^(0+128)
  1042  0CB3                     l2872:
  1043                           
  1044                           ;Maestro4EEPROMEUSART.c: 315:             PORTEbits.RE0 = 1;
  1045  0CB3  1283               	bcf	3,5	;RP0=0, select bank0
  1046  0CB4  1303               	bcf	3,6	;RP1=0, select bank0
  1047  0CB5  1409               	bsf	9,0	;volatile
  1048  0CB6                     l2874:
  1049                           
  1050                           ;Maestro4EEPROMEUSART.c: 316:             PORTEbits.RE1 = 0;
  1051  0CB6  1089               	bcf	9,1	;volatile
  1052  0CB7                     l2876:
  1053                           
  1054                           ;Maestro4EEPROMEUSART.c: 317:             PORTEbits.RE2 = 0;
  1055  0CB7  1109               	bcf	9,2	;volatile
  1056                           
  1057                           ;Maestro4EEPROMEUSART.c: 318:         }
  1058  0CB8  2B9C               	goto	l2808
  1059  0CB9                     l2878:
  1060  0CB9  0338               	decf	_MODO^(0+128),w
  1061  0CBA  1D03               	btfss	3,2
  1062  0CBB  2CBD               	goto	u4031
  1063  0CBC  2CBE               	goto	u4030
  1064  0CBD                     u4031:
  1065  0CBD  2D68               	goto	l2922
  1066  0CBE                     u4030:
  1067  0CBE                     l2880:
  1068                           
  1069                           ;Maestro4EEPROMEUSART.c: 320:             if (BANDERA_L1 == 1){
  1070  0CBE  032F               	decf	_BANDERA_L1^(0+128),w
  1071  0CBF  1D03               	btfss	3,2
  1072  0CC0  2CC2               	goto	u4041
  1073  0CC1  2CC3               	goto	u4040
  1074  0CC2                     u4041:
  1075  0CC2  2D10               	goto	l2898
  1076  0CC3                     u4040:
  1077  0CC3                     l2882:
  1078                           
  1079                           ;Maestro4EEPROMEUSART.c: 322:                 POT_1 = LECTURA_EEPROM(1);
  1080  0CC3  3001               	movlw	1
  1081  0CC4  120A  118A  27DF  120A  158A  	fcall	_LECTURA_EEPROM
  1082  0CC9  1683               	bsf	3,5	;RP0=1, select bank1
  1083  0CCA  1303               	bcf	3,6	;RP1=0, select bank1
  1084  0CCB  00D0               	movwf	??_main^(0+128)
  1085  0CCC  0850               	movf	??_main^(0+128),w
  1086  0CCD  00B7               	movwf	_POT_1^(0+128)
  1087  0CCE                     l2884:
  1088                           
  1089                           ;Maestro4EEPROMEUSART.c: 323:                 _delay((unsigned long)((1)*(1000000/4000.0
      +                          )));
  1090  0CCE  3052               	movlw	82
  1091  0CCF  1683               	bsf	3,5	;RP0=1, select bank1
  1092  0CD0  1303               	bcf	3,6	;RP1=0, select bank1
  1093  0CD1  00D0               	movwf	??_main^(0+128)
  1094  0CD2                     u4167:
  1095  0CD2  0BD0               	decfsz	??_main^(0+128),f
  1096  0CD3  2CD2               	goto	u4167
  1097  0CD4  0000               	nop
  1098  0CD5                     l2886:
  1099                           
  1100                           ;Maestro4EEPROMEUSART.c: 324:                 POT_2 = LECTURA_EEPROM(2);
  1101  0CD5  3002               	movlw	2
  1102  0CD6  120A  118A  27DF  120A  158A  	fcall	_LECTURA_EEPROM
  1103  0CDB  1683               	bsf	3,5	;RP0=1, select bank1
  1104  0CDC  1303               	bcf	3,6	;RP1=0, select bank1
  1105  0CDD  00D0               	movwf	??_main^(0+128)
  1106  0CDE  0850               	movf	??_main^(0+128),w
  1107  0CDF  00B6               	movwf	_POT_2^(0+128)
  1108                           
  1109                           ;Maestro4EEPROMEUSART.c: 325:                 _delay((unsigned long)((1)*(1000000/4000.0
      +                          )));
  1110  0CE0  3052               	movlw	82
  1111  0CE1  1683               	bsf	3,5	;RP0=1, select bank1
  1112  0CE2  1303               	bcf	3,6	;RP1=0, select bank1
  1113  0CE3  00D0               	movwf	??_main^(0+128)
  1114  0CE4                     u4177:
  1115  0CE4  0BD0               	decfsz	??_main^(0+128),f
  1116  0CE5  2CE4               	goto	u4177
  1117  0CE6  0000               	nop
  1118  0CE7                     l2888:
  1119                           
  1120                           ;Maestro4EEPROMEUSART.c: 326:                 POT_3 = LECTURA_EEPROM(3);
  1121  0CE7  3003               	movlw	3
  1122  0CE8  120A  118A  27DF  120A  158A  	fcall	_LECTURA_EEPROM
  1123  0CED  1683               	bsf	3,5	;RP0=1, select bank1
  1124  0CEE  1303               	bcf	3,6	;RP1=0, select bank1
  1125  0CEF  00D0               	movwf	??_main^(0+128)
  1126  0CF0  0850               	movf	??_main^(0+128),w
  1127  0CF1  00B5               	movwf	_POT_3^(0+128)
  1128  0CF2                     l2890:
  1129                           
  1130                           ;Maestro4EEPROMEUSART.c: 327:                 _delay((unsigned long)((1)*(1000000/4000.0
      +                          )));
  1131  0CF2  3052               	movlw	82
  1132  0CF3  1683               	bsf	3,5	;RP0=1, select bank1
  1133  0CF4  1303               	bcf	3,6	;RP1=0, select bank1
  1134  0CF5  00D0               	movwf	??_main^(0+128)
  1135  0CF6                     u4187:
  1136  0CF6  0BD0               	decfsz	??_main^(0+128),f
  1137  0CF7  2CF6               	goto	u4187
  1138  0CF8  0000               	nop
  1139                           
  1140                           ;Maestro4EEPROMEUSART.c: 328:                 POT_4 = LECTURA_EEPROM(4);
  1141  0CF9  3004               	movlw	4
  1142  0CFA  120A  118A  27DF  120A  158A  	fcall	_LECTURA_EEPROM
  1143  0CFF  1683               	bsf	3,5	;RP0=1, select bank1
  1144  0D00  1303               	bcf	3,6	;RP1=0, select bank1
  1145  0D01  00D0               	movwf	??_main^(0+128)
  1146  0D02  0850               	movf	??_main^(0+128),w
  1147  0D03  00B4               	movwf	_POT_4^(0+128)
  1148  0D04                     l2892:
  1149                           
  1150                           ;Maestro4EEPROMEUSART.c: 329:                 _delay((unsigned long)((1)*(1000000/4000.0
      +                          )));
  1151  0D04  3052               	movlw	82
  1152  0D05  1683               	bsf	3,5	;RP0=1, select bank1
  1153  0D06  1303               	bcf	3,6	;RP1=0, select bank1
  1154  0D07  00D0               	movwf	??_main^(0+128)
  1155  0D08                     u4197:
  1156  0D08  0BD0               	decfsz	??_main^(0+128),f
  1157  0D09  2D08               	goto	u4197
  1158  0D0A  0000               	nop
  1159  0D0B                     l2894:
  1160                           
  1161                           ;Maestro4EEPROMEUSART.c: 331:                 BANDERA_R = 1;
  1162  0D0B  1683               	bsf	3,5	;RP0=1, select bank1
  1163  0D0C  1303               	bcf	3,6	;RP1=0, select bank1
  1164  0D0D  01AB               	clrf	_BANDERA_R^(0+128)
  1165  0D0E  0AAB               	incf	_BANDERA_R^(0+128),f
  1166  0D0F                     l2896:
  1167                           
  1168                           ;Maestro4EEPROMEUSART.c: 333:                 BANDERA_L1 = 0;
  1169  0D0F  01AF               	clrf	_BANDERA_L1^(0+128)
  1170  0D10                     l2898:
  1171                           
  1172                           ;Maestro4EEPROMEUSART.c: 335:             if (BANDERA_L2 == 1){
  1173  0D10  032E               	decf	_BANDERA_L2^(0+128),w
  1174  0D11  1D03               	btfss	3,2
  1175  0D12  2D14               	goto	u4051
  1176  0D13  2D15               	goto	u4050
  1177  0D14                     u4051:
  1178  0D14  2D62               	goto	l2916
  1179  0D15                     u4050:
  1180  0D15                     l2900:
  1181                           
  1182                           ;Maestro4EEPROMEUSART.c: 336:                 POT_1 = LECTURA_EEPROM(5);
  1183  0D15  3005               	movlw	5
  1184  0D16  120A  118A  27DF  120A  158A  	fcall	_LECTURA_EEPROM
  1185  0D1B  1683               	bsf	3,5	;RP0=1, select bank1
  1186  0D1C  1303               	bcf	3,6	;RP1=0, select bank1
  1187  0D1D  00D0               	movwf	??_main^(0+128)
  1188  0D1E  0850               	movf	??_main^(0+128),w
  1189  0D1F  00B7               	movwf	_POT_1^(0+128)
  1190  0D20                     l2902:
  1191                           
  1192                           ;Maestro4EEPROMEUSART.c: 337:                 _delay((unsigned long)((1)*(1000000/4000.0
      +                          )));
  1193  0D20  3052               	movlw	82
  1194  0D21  1683               	bsf	3,5	;RP0=1, select bank1
  1195  0D22  1303               	bcf	3,6	;RP1=0, select bank1
  1196  0D23  00D0               	movwf	??_main^(0+128)
  1197  0D24                     u4207:
  1198  0D24  0BD0               	decfsz	??_main^(0+128),f
  1199  0D25  2D24               	goto	u4207
  1200  0D26  0000               	nop
  1201  0D27                     l2904:
  1202                           
  1203                           ;Maestro4EEPROMEUSART.c: 338:                 POT_2 = LECTURA_EEPROM(6);
  1204  0D27  3006               	movlw	6
  1205  0D28  120A  118A  27DF  120A  158A  	fcall	_LECTURA_EEPROM
  1206  0D2D  1683               	bsf	3,5	;RP0=1, select bank1
  1207  0D2E  1303               	bcf	3,6	;RP1=0, select bank1
  1208  0D2F  00D0               	movwf	??_main^(0+128)
  1209  0D30  0850               	movf	??_main^(0+128),w
  1210  0D31  00B6               	movwf	_POT_2^(0+128)
  1211                           
  1212                           ;Maestro4EEPROMEUSART.c: 339:                 _delay((unsigned long)((1)*(1000000/4000.0
      +                          )));
  1213  0D32  3052               	movlw	82
  1214  0D33  1683               	bsf	3,5	;RP0=1, select bank1
  1215  0D34  1303               	bcf	3,6	;RP1=0, select bank1
  1216  0D35  00D0               	movwf	??_main^(0+128)
  1217  0D36                     u4217:
  1218  0D36  0BD0               	decfsz	??_main^(0+128),f
  1219  0D37  2D36               	goto	u4217
  1220  0D38  0000               	nop
  1221  0D39                     l2906:
  1222                           
  1223                           ;Maestro4EEPROMEUSART.c: 340:                 POT_3 = LECTURA_EEPROM(7);
  1224  0D39  3007               	movlw	7
  1225  0D3A  120A  118A  27DF  120A  158A  	fcall	_LECTURA_EEPROM
  1226  0D3F  1683               	bsf	3,5	;RP0=1, select bank1
  1227  0D40  1303               	bcf	3,6	;RP1=0, select bank1
  1228  0D41  00D0               	movwf	??_main^(0+128)
  1229  0D42  0850               	movf	??_main^(0+128),w
  1230  0D43  00B5               	movwf	_POT_3^(0+128)
  1231  0D44                     l2908:
  1232                           
  1233                           ;Maestro4EEPROMEUSART.c: 341:                 _delay((unsigned long)((1)*(1000000/4000.0
      +                          )));
  1234  0D44  3052               	movlw	82
  1235  0D45  1683               	bsf	3,5	;RP0=1, select bank1
  1236  0D46  1303               	bcf	3,6	;RP1=0, select bank1
  1237  0D47  00D0               	movwf	??_main^(0+128)
  1238  0D48                     u4227:
  1239  0D48  0BD0               	decfsz	??_main^(0+128),f
  1240  0D49  2D48               	goto	u4227
  1241  0D4A  0000               	nop
  1242                           
  1243                           ;Maestro4EEPROMEUSART.c: 342:                 POT_4 = LECTURA_EEPROM(8);
  1244  0D4B  3008               	movlw	8
  1245  0D4C  120A  118A  27DF  120A  158A  	fcall	_LECTURA_EEPROM
  1246  0D51  1683               	bsf	3,5	;RP0=1, select bank1
  1247  0D52  1303               	bcf	3,6	;RP1=0, select bank1
  1248  0D53  00D0               	movwf	??_main^(0+128)
  1249  0D54  0850               	movf	??_main^(0+128),w
  1250  0D55  00B4               	movwf	_POT_4^(0+128)
  1251  0D56                     l2910:
  1252                           
  1253                           ;Maestro4EEPROMEUSART.c: 343:                 _delay((unsigned long)((1)*(1000000/4000.0
      +                          )));
  1254  0D56  3052               	movlw	82
  1255  0D57  1683               	bsf	3,5	;RP0=1, select bank1
  1256  0D58  1303               	bcf	3,6	;RP1=0, select bank1
  1257  0D59  00D0               	movwf	??_main^(0+128)
  1258  0D5A                     u4237:
  1259  0D5A  0BD0               	decfsz	??_main^(0+128),f
  1260  0D5B  2D5A               	goto	u4237
  1261  0D5C  0000               	nop
  1262  0D5D                     l2912:
  1263                           
  1264                           ;Maestro4EEPROMEUSART.c: 345:                 BANDERA_R = 1;
  1265  0D5D  1683               	bsf	3,5	;RP0=1, select bank1
  1266  0D5E  1303               	bcf	3,6	;RP1=0, select bank1
  1267  0D5F  01AB               	clrf	_BANDERA_R^(0+128)
  1268  0D60  0AAB               	incf	_BANDERA_R^(0+128),f
  1269  0D61                     l2914:
  1270                           
  1271                           ;Maestro4EEPROMEUSART.c: 347:                 BANDERA_L2 = 0;
  1272  0D61  01AE               	clrf	_BANDERA_L2^(0+128)
  1273  0D62                     l2916:
  1274                           
  1275                           ;Maestro4EEPROMEUSART.c: 349:             PORTEbits.RE0 = 0;
  1276  0D62  1283               	bcf	3,5	;RP0=0, select bank0
  1277  0D63  1303               	bcf	3,6	;RP1=0, select bank0
  1278  0D64  1009               	bcf	9,0	;volatile
  1279  0D65                     l2918:
  1280                           
  1281                           ;Maestro4EEPROMEUSART.c: 350:             PORTEbits.RE1 = 1;
  1282  0D65  1489               	bsf	9,1	;volatile
  1283  0D66                     l2920:
  1284                           
  1285                           ;Maestro4EEPROMEUSART.c: 351:             PORTEbits.RE2 = 0;
  1286  0D66  1109               	bcf	9,2	;volatile
  1287                           
  1288                           ;Maestro4EEPROMEUSART.c: 352:         }
  1289  0D67  2B9C               	goto	l2808
  1290  0D68                     l2922:
  1291  0D68  3002               	movlw	2
  1292  0D69  0638               	xorwf	_MODO^(0+128),w
  1293  0D6A  1D03               	btfss	3,2
  1294  0D6B  2D6D               	goto	u4061
  1295  0D6C  2D6E               	goto	u4060
  1296  0D6D                     u4061:
  1297  0D6D  2D74               	goto	l252
  1298  0D6E                     u4060:
  1299  0D6E                     l2924:
  1300                           
  1301                           ;Maestro4EEPROMEUSART.c: 354:             PORTEbits.RE0 = 0;
  1302  0D6E  1283               	bcf	3,5	;RP0=0, select bank0
  1303  0D6F  1303               	bcf	3,6	;RP1=0, select bank0
  1304  0D70  1009               	bcf	9,0	;volatile
  1305                           
  1306                           ;Maestro4EEPROMEUSART.c: 355:             PORTEbits.RE1 = 0;
  1307  0D71  1089               	bcf	9,1	;volatile
  1308                           
  1309                           ;Maestro4EEPROMEUSART.c: 356:             PORTEbits.RE2 = 1;
  1310  0D72  1509               	bsf	9,2	;volatile
  1311  0D73  2B9C               	goto	l2808
  1312  0D74                     l252:
  1313  0D74  2B9C               	goto	l2808
  1314  0D75  120A  118A  2810   	ljmp	start
  1315  0D78                     __end_of_main:
  1316                           
  1317                           	psect	text1
  1318  086E                     __ptext1:	
  1319 ;; *************** function _setup *****************
  1320 ;; Defined at:
  1321 ;;		line 365 in file "Maestro4EEPROMEUSART.c"
  1322 ;; Parameters:    Size  Location     Type
  1323 ;;		None
  1324 ;; Auto vars:     Size  Location     Type
  1325 ;;		None
  1326 ;; Return value:  Size  Location     Type
  1327 ;;                  1    wreg      void 
  1328 ;; Registers used:
  1329 ;;		wreg, status,2, status,0
  1330 ;; Tracked objects:
  1331 ;;		On entry : 0/0
  1332 ;;		On exit  : 0/0
  1333 ;;		Unchanged: 0/0
  1334 ;; Data sizes:     COMMON   BANK0   BANK1   BANK3   BANK2
  1335 ;;      Params:         0       0       0       0       0
  1336 ;;      Locals:         0       0       0       0       0
  1337 ;;      Temps:          0       0       1       0       0
  1338 ;;      Totals:         0       0       1       0       0
  1339 ;;Total ram usage:        1 bytes
  1340 ;; Hardware stack levels used: 1
  1341 ;; Hardware stack levels required when called: 4
  1342 ;; This function calls:
  1343 ;;		Nothing
  1344 ;; This function is called by:
  1345 ;;		_main
  1346 ;; This function uses a non-reentrant model
  1347 ;;
  1348                           
  1349  086E                     _setup:	
  1350                           ;psect for function _setup
  1351                           
  1352  086E                     l2472:	
  1353                           ;incstack = 0
  1354                           ; Regs used in _setup: [wreg+status,2+status,0]
  1355                           
  1356                           
  1357                           ;Maestro4EEPROMEUSART.c: 367:     OSCCONbits.IRCF = 0b0100;
  1358  086E  1683               	bsf	3,5	;RP0=1, select bank1
  1359  086F  1303               	bcf	3,6	;RP1=0, select bank1
  1360  0870  080F               	movf	15,w	;volatile
  1361  0871  398F               	andlw	-113
  1362  0872  3840               	iorlw	64
  1363  0873  008F               	movwf	15	;volatile
  1364  0874                     l2474:
  1365                           
  1366                           ;Maestro4EEPROMEUSART.c: 368:     OSCCONbits.SCS = 1;
  1367  0874  140F               	bsf	15,0	;volatile
  1368  0875                     l2476:
  1369                           
  1370                           ;Maestro4EEPROMEUSART.c: 371:     ANSEL = 0b00001111;
  1371  0875  300F               	movlw	15
  1372  0876  1683               	bsf	3,5	;RP0=1, select bank3
  1373  0877  1703               	bsf	3,6	;RP1=1, select bank3
  1374  0878  0088               	movwf	8	;volatile
  1375  0879                     l2478:
  1376                           
  1377                           ;Maestro4EEPROMEUSART.c: 372:     ANSELH = 0b00000000;
  1378  0879  0189               	clrf	9	;volatile
  1379  087A                     l2480:
  1380                           
  1381                           ;Maestro4EEPROMEUSART.c: 374:     TRISA = 0b00001111;
  1382  087A  300F               	movlw	15
  1383  087B  1683               	bsf	3,5	;RP0=1, select bank1
  1384  087C  1303               	bcf	3,6	;RP1=0, select bank1
  1385  087D  0085               	movwf	5	;volatile
  1386  087E                     l2482:
  1387                           
  1388                           ;Maestro4EEPROMEUSART.c: 375:     TRISB = 0b00000111;
  1389  087E  3007               	movlw	7
  1390  087F  0086               	movwf	6	;volatile
  1391  0880                     l2484:
  1392                           
  1393                           ;Maestro4EEPROMEUSART.c: 376:     TRISC = 0b00010000;
  1394  0880  3010               	movlw	16
  1395  0881  0087               	movwf	7	;volatile
  1396  0882                     l2486:
  1397                           
  1398                           ;Maestro4EEPROMEUSART.c: 379:     TRISD = 0b00000000;
  1399  0882  0188               	clrf	8	;volatile
  1400  0883                     l2488:
  1401                           
  1402                           ;Maestro4EEPROMEUSART.c: 381:     TRISE = 0b00000000;
  1403  0883  0189               	clrf	9	;volatile
  1404  0884                     l2490:
  1405                           
  1406                           ;Maestro4EEPROMEUSART.c: 383:     PORTA = 0b00000000;
  1407  0884  1283               	bcf	3,5	;RP0=0, select bank0
  1408  0885  1303               	bcf	3,6	;RP1=0, select bank0
  1409  0886  0185               	clrf	5	;volatile
  1410  0887                     l2492:
  1411                           
  1412                           ;Maestro4EEPROMEUSART.c: 384:     PORTB = 0b00000000;
  1413  0887  0186               	clrf	6	;volatile
  1414  0888                     l2494:
  1415                           
  1416                           ;Maestro4EEPROMEUSART.c: 385:     PORTC = 0b00000000;
  1417  0888  0187               	clrf	7	;volatile
  1418  0889                     l2496:
  1419                           
  1420                           ;Maestro4EEPROMEUSART.c: 386:     PORTD = 0b00000000;
  1421  0889  0188               	clrf	8	;volatile
  1422  088A                     l2498:
  1423                           
  1424                           ;Maestro4EEPROMEUSART.c: 387:     PORTE = 0b00000000;
  1425  088A  0189               	clrf	9	;volatile
  1426  088B                     l2500:
  1427                           
  1428                           ;Maestro4EEPROMEUSART.c: 390:     INTCONbits.GIE = 1;
  1429  088B  178B               	bsf	11,7	;volatile
  1430  088C                     l2502:
  1431                           
  1432                           ;Maestro4EEPROMEUSART.c: 391:     INTCONbits.PEIE = 1;
  1433  088C  170B               	bsf	11,6	;volatile
  1434  088D                     l2504:
  1435                           
  1436                           ;Maestro4EEPROMEUSART.c: 394:     PIE1bits.ADIE = 1;
  1437  088D  1683               	bsf	3,5	;RP0=1, select bank1
  1438  088E  1303               	bcf	3,6	;RP1=0, select bank1
  1439  088F  170C               	bsf	12,6	;volatile
  1440  0890                     l2506:
  1441                           
  1442                           ;Maestro4EEPROMEUSART.c: 395:     PIR1bits.ADIF = 0;
  1443  0890  1283               	bcf	3,5	;RP0=0, select bank0
  1444  0891  1303               	bcf	3,6	;RP1=0, select bank0
  1445  0892  130C               	bcf	12,6	;volatile
  1446  0893                     l2508:
  1447                           
  1448                           ;Maestro4EEPROMEUSART.c: 397:     INTCONbits.RBIE = 1;
  1449  0893  158B               	bsf	11,3	;volatile
  1450  0894                     l2510:
  1451                           
  1452                           ;Maestro4EEPROMEUSART.c: 398:     INTCONbits.RBIF = 0;
  1453  0894  100B               	bcf	11,0	;volatile
  1454  0895                     l2512:
  1455                           
  1456                           ;Maestro4EEPROMEUSART.c: 400:     PIE1bits.RCIE = 1;
  1457  0895  1683               	bsf	3,5	;RP0=1, select bank1
  1458  0896  1303               	bcf	3,6	;RP1=0, select bank1
  1459  0897  168C               	bsf	12,5	;volatile
  1460  0898                     l2514:
  1461                           
  1462                           ;Maestro4EEPROMEUSART.c: 403:     OPTION_REGbits.nRBPU = 0;
  1463  0898  1381               	bcf	1,7	;volatile
  1464  0899                     l2516:
  1465                           
  1466                           ;Maestro4EEPROMEUSART.c: 404:     WPUBbits.WPUB = 0b00000111;
  1467  0899  3007               	movlw	7
  1468  089A  0095               	movwf	21	;volatile
  1469  089B                     l2518:
  1470                           
  1471                           ;Maestro4EEPROMEUSART.c: 405:     IOCBbits.IOCB = 0b00000111;
  1472  089B  3007               	movlw	7
  1473  089C  0096               	movwf	22	;volatile
  1474                           
  1475                           ;Maestro4EEPROMEUSART.c: 408:     ADCON0bits.ADCS = 0b00000010;
  1476  089D  1283               	bcf	3,5	;RP0=0, select bank0
  1477  089E  1303               	bcf	3,6	;RP1=0, select bank0
  1478  089F  081F               	movf	31,w	;volatile
  1479  08A0  393F               	andlw	-193
  1480  08A1  3880               	iorlw	128
  1481  08A2  009F               	movwf	31	;volatile
  1482  08A3                     l2520:
  1483                           
  1484                           ;Maestro4EEPROMEUSART.c: 409:     ADCON1bits.VCFG0 = 0;
  1485  08A3  1683               	bsf	3,5	;RP0=1, select bank1
  1486  08A4  1303               	bcf	3,6	;RP1=0, select bank1
  1487  08A5  121F               	bcf	31,4	;volatile
  1488  08A6                     l2522:
  1489                           
  1490                           ;Maestro4EEPROMEUSART.c: 410:     ADCON1bits.VCFG1 = 0;
  1491  08A6  129F               	bcf	31,5	;volatile
  1492                           
  1493                           ;Maestro4EEPROMEUSART.c: 411:     ADCON0bits.CHS = 0b0000;
  1494  08A7  30C3               	movlw	-61
  1495  08A8  1283               	bcf	3,5	;RP0=0, select bank0
  1496  08A9  1303               	bcf	3,6	;RP1=0, select bank0
  1497  08AA  059F               	andwf	31,f	;volatile
  1498  08AB                     l2524:
  1499                           
  1500                           ;Maestro4EEPROMEUSART.c: 412:     ADCON1bits.ADFM = 0;
  1501  08AB  1683               	bsf	3,5	;RP0=1, select bank1
  1502  08AC  1303               	bcf	3,6	;RP1=0, select bank1
  1503  08AD  139F               	bcf	31,7	;volatile
  1504  08AE                     l2526:
  1505                           
  1506                           ;Maestro4EEPROMEUSART.c: 413:     ADCON0bits.ADON = 1;
  1507  08AE  1283               	bcf	3,5	;RP0=0, select bank0
  1508  08AF  1303               	bcf	3,6	;RP1=0, select bank0
  1509  08B0  141F               	bsf	31,0	;volatile
  1510  08B1                     l2528:
  1511                           
  1512                           ;Maestro4EEPROMEUSART.c: 414:     _delay((unsigned long)((1000)*(1000000/4000000.0)));
  1513  08B1  3052               	movlw	82
  1514  08B2  1683               	bsf	3,5	;RP0=1, select bank1
  1515  08B3  1303               	bcf	3,6	;RP1=0, select bank1
  1516  08B4  00CE               	movwf	??_setup^(0+128)
  1517  08B5                     u4247:
  1518  08B5  0BCE               	decfsz	??_setup^(0+128),f
  1519  08B6  28B5               	goto	u4247
  1520  08B7  0000               	nop
  1521  08B8                     l2530:
  1522                           
  1523                           ;Maestro4EEPROMEUSART.c: 419:     SSPCONbits.SSPM = 0b0000;
  1524  08B8  30F0               	movlw	-16
  1525  08B9  1283               	bcf	3,5	;RP0=0, select bank0
  1526  08BA  1303               	bcf	3,6	;RP1=0, select bank0
  1527  08BB  0594               	andwf	20,f	;volatile
  1528  08BC                     l2532:
  1529                           
  1530                           ;Maestro4EEPROMEUSART.c: 420:     SSPCONbits.CKP = 0;
  1531  08BC  1214               	bcf	20,4	;volatile
  1532  08BD                     l2534:
  1533                           
  1534                           ;Maestro4EEPROMEUSART.c: 421:     SSPCONbits.SSPEN = 1;
  1535  08BD  1694               	bsf	20,5	;volatile
  1536  08BE                     l2536:
  1537                           
  1538                           ;Maestro4EEPROMEUSART.c: 423:     SSPSTATbits.CKE = 1;
  1539  08BE  1683               	bsf	3,5	;RP0=1, select bank1
  1540  08BF  1303               	bcf	3,6	;RP1=0, select bank1
  1541  08C0  1714               	bsf	20,6	;volatile
  1542  08C1                     l2538:
  1543                           
  1544                           ;Maestro4EEPROMEUSART.c: 424:     SSPSTATbits.SMP = 1;
  1545  08C1  1794               	bsf	20,7	;volatile
  1546  08C2                     l2540:
  1547                           
  1548                           ;Maestro4EEPROMEUSART.c: 425:     SSPBUF = 0b00000000;
  1549  08C2  1283               	bcf	3,5	;RP0=0, select bank0
  1550  08C3  1303               	bcf	3,6	;RP1=0, select bank0
  1551  08C4  0193               	clrf	19	;volatile
  1552  08C5                     l2542:
  1553                           
  1554                           ;Maestro4EEPROMEUSART.c: 428:     TRISCbits.TRISC2 = 1;
  1555  08C5  1683               	bsf	3,5	;RP0=1, select bank1
  1556  08C6  1303               	bcf	3,6	;RP1=0, select bank1
  1557  08C7  1507               	bsf	7,2	;volatile
  1558  08C8                     l2544:
  1559                           
  1560                           ;Maestro4EEPROMEUSART.c: 429:     TRISCbits.TRISC1 = 1;
  1561  08C8  1487               	bsf	7,1	;volatile
  1562  08C9                     l2546:
  1563                           
  1564                           ;Maestro4EEPROMEUSART.c: 430:     PR2 = 250;
  1565  08C9  30FA               	movlw	250
  1566  08CA  0092               	movwf	18	;volatile
  1567                           
  1568                           ;Maestro4EEPROMEUSART.c: 433:     CCP1CON = 0;
  1569  08CB  1283               	bcf	3,5	;RP0=0, select bank0
  1570  08CC  1303               	bcf	3,6	;RP1=0, select bank0
  1571  08CD  0197               	clrf	23	;volatile
  1572                           
  1573                           ;Maestro4EEPROMEUSART.c: 434:     CCP2CON = 0;
  1574  08CE  019D               	clrf	29	;volatile
  1575  08CF                     l2548:
  1576                           
  1577                           ;Maestro4EEPROMEUSART.c: 435:     CCP1CONbits.P1M = 0;
  1578  08CF  303F               	movlw	-193
  1579  08D0  0597               	andwf	23,f	;volatile
  1580  08D1                     l2550:
  1581                           
  1582                           ;Maestro4EEPROMEUSART.c: 436:     CCP1CONbits.CCP1M = 0b1100;
  1583  08D1  0817               	movf	23,w	;volatile
  1584  08D2  39F0               	andlw	-16
  1585  08D3  380C               	iorlw	12
  1586  08D4  0097               	movwf	23	;volatile
  1587  08D5                     l2552:
  1588                           
  1589                           ;Maestro4EEPROMEUSART.c: 437:     CCP2CONbits.CCP2M = 0b1100;
  1590  08D5  081D               	movf	29,w	;volatile
  1591  08D6  39F0               	andlw	-16
  1592  08D7  380C               	iorlw	12
  1593  08D8  009D               	movwf	29	;volatile
  1594  08D9                     l2554:
  1595                           
  1596                           ;Maestro4EEPROMEUSART.c: 439:     CCPR1L = 125>>2;
  1597  08D9  301F               	movlw	31
  1598  08DA  0095               	movwf	21	;volatile
  1599  08DB                     l2556:
  1600                           
  1601                           ;Maestro4EEPROMEUSART.c: 440:     CCP1CONbits.DC1B = 125 & 0b11;
  1602  08DB  0817               	movf	23,w	;volatile
  1603  08DC  39CF               	andlw	-49
  1604  08DD  3810               	iorlw	16
  1605  08DE  0097               	movwf	23	;volatile
  1606  08DF                     l2558:
  1607                           
  1608                           ;Maestro4EEPROMEUSART.c: 441:     CCPR2L = 125>>2;
  1609  08DF  301F               	movlw	31
  1610  08E0  009B               	movwf	27	;volatile
  1611  08E1                     l2560:
  1612                           
  1613                           ;Maestro4EEPROMEUSART.c: 442:     CCP2CONbits.DC2B0 = 125 & 0b01;
  1614  08E1  161D               	bsf	29,4	;volatile
  1615  08E2                     l2562:
  1616                           
  1617                           ;Maestro4EEPROMEUSART.c: 443:     CCP2CONbits.DC2B1 = 125 & 0b10;
  1618  08E2  129D               	bcf	29,5	;volatile
  1619  08E3                     l2564:
  1620                           
  1621                           ;Maestro4EEPROMEUSART.c: 445:     PIR1bits.TMR2IF = 0;
  1622  08E3  108C               	bcf	12,1	;volatile
  1623  08E4                     l2566:
  1624                           
  1625                           ;Maestro4EEPROMEUSART.c: 446:     T2CONbits.T2CKPS = 0b01;
  1626  08E4  0812               	movf	18,w	;volatile
  1627  08E5  39FC               	andlw	-4
  1628  08E6  3801               	iorlw	1
  1629  08E7  0092               	movwf	18	;volatile
  1630  08E8                     l2568:
  1631                           
  1632                           ;Maestro4EEPROMEUSART.c: 447:     T2CONbits.TMR2ON = 1;
  1633  08E8  1512               	bsf	18,2	;volatile
  1634  08E9                     l263:	
  1635                           ;Maestro4EEPROMEUSART.c: 448:     while (!PIR1bits.TMR2IF);
  1636                           
  1637  08E9  1C8C               	btfss	12,1	;volatile
  1638  08EA  28EC               	goto	u3431
  1639  08EB  28ED               	goto	u3430
  1640  08EC                     u3431:
  1641  08EC  28E9               	goto	l263
  1642  08ED                     u3430:
  1643  08ED                     l265:
  1644                           
  1645                           ;Maestro4EEPROMEUSART.c: 449:     PIR1bits.TMR2IF = 0;
  1646  08ED  108C               	bcf	12,1	;volatile
  1647                           
  1648                           ;Maestro4EEPROMEUSART.c: 451:     TRISCbits.TRISC2 = 0;
  1649  08EE  1683               	bsf	3,5	;RP0=1, select bank1
  1650  08EF  1303               	bcf	3,6	;RP1=0, select bank1
  1651  08F0  1107               	bcf	7,2	;volatile
  1652                           
  1653                           ;Maestro4EEPROMEUSART.c: 452:     TRISCbits.TRISC1 = 0;
  1654  08F1  1087               	bcf	7,1	;volatile
  1655                           
  1656                           ;Maestro4EEPROMEUSART.c: 456:     TXSTAbits.SYNC = 0;
  1657  08F2  1218               	bcf	24,4	;volatile
  1658                           
  1659                           ;Maestro4EEPROMEUSART.c: 457:     TXSTAbits.BRGH = 1;
  1660  08F3  1518               	bsf	24,2	;volatile
  1661                           
  1662                           ;Maestro4EEPROMEUSART.c: 458:     BAUDCTLbits.BRG16 = 1;
  1663  08F4  1683               	bsf	3,5	;RP0=1, select bank3
  1664  08F5  1703               	bsf	3,6	;RP1=1, select bank3
  1665  08F6  1587               	bsf	7,3	;volatile
  1666  08F7                     l2570:
  1667                           
  1668                           ;Maestro4EEPROMEUSART.c: 460:     SPBRG = 25;
  1669  08F7  3019               	movlw	25
  1670  08F8  1683               	bsf	3,5	;RP0=1, select bank1
  1671  08F9  1303               	bcf	3,6	;RP1=0, select bank1
  1672  08FA  0099               	movwf	25	;volatile
  1673  08FB                     l2572:
  1674                           
  1675                           ;Maestro4EEPROMEUSART.c: 461:     SPBRGH = 0;
  1676  08FB  019A               	clrf	26	;volatile
  1677  08FC                     l2574:
  1678                           
  1679                           ;Maestro4EEPROMEUSART.c: 463:     RCSTAbits.SPEN = 1;
  1680  08FC  1283               	bcf	3,5	;RP0=0, select bank0
  1681  08FD  1303               	bcf	3,6	;RP1=0, select bank0
  1682  08FE  1798               	bsf	24,7	;volatile
  1683  08FF                     l2576:
  1684                           
  1685                           ;Maestro4EEPROMEUSART.c: 464:     TXSTAbits.TX9 = 0;
  1686  08FF  1683               	bsf	3,5	;RP0=1, select bank1
  1687  0900  1303               	bcf	3,6	;RP1=0, select bank1
  1688  0901  1318               	bcf	24,6	;volatile
  1689  0902                     l2578:
  1690                           
  1691                           ;Maestro4EEPROMEUSART.c: 465:     RCSTAbits.RC9 = 0;
  1692  0902  1283               	bcf	3,5	;RP0=0, select bank0
  1693  0903  1303               	bcf	3,6	;RP1=0, select bank0
  1694  0904  1318               	bcf	24,6	;volatile
  1695  0905                     l2580:
  1696                           
  1697                           ;Maestro4EEPROMEUSART.c: 466:     TXSTAbits.TXEN = 1;
  1698  0905  1683               	bsf	3,5	;RP0=1, select bank1
  1699  0906  1303               	bcf	3,6	;RP1=0, select bank1
  1700  0907  1698               	bsf	24,5	;volatile
  1701  0908                     l2582:
  1702                           
  1703                           ;Maestro4EEPROMEUSART.c: 467:     RCSTAbits.CREN = 1;
  1704  0908  1283               	bcf	3,5	;RP0=0, select bank0
  1705  0909  1303               	bcf	3,6	;RP1=0, select bank0
  1706  090A  1618               	bsf	24,4	;volatile
  1707  090B                     l266:
  1708  090B  0008               	return
  1709  090C                     __end_of_setup:
  1710                           
  1711                           	psect	text2
  1712  07DF                     __ptext2:	
  1713 ;; *************** function _LECTURA_EEPROM *****************
  1714 ;; Defined at:
  1715 ;;		line 479 in file "Maestro4EEPROMEUSART.c"
  1716 ;; Parameters:    Size  Location     Type
  1717 ;;  DIRECCION       1    wreg     unsigned char 
  1718 ;; Auto vars:     Size  Location     Type
  1719 ;;  DIRECCION       1   21[BANK1 ] unsigned char 
  1720 ;; Return value:  Size  Location     Type
  1721 ;;                  1    wreg      unsigned char 
  1722 ;; Registers used:
  1723 ;;		wreg
  1724 ;; Tracked objects:
  1725 ;;		On entry : 0/0
  1726 ;;		On exit  : 0/0
  1727 ;;		Unchanged: 0/0
  1728 ;; Data sizes:     COMMON   BANK0   BANK1   BANK3   BANK2
  1729 ;;      Params:         0       0       0       0       0
  1730 ;;      Locals:         0       0       1       0       0
  1731 ;;      Temps:          0       0       0       0       0
  1732 ;;      Totals:         0       0       1       0       0
  1733 ;;Total ram usage:        1 bytes
  1734 ;; Hardware stack levels used: 1
  1735 ;; Hardware stack levels required when called: 4
  1736 ;; This function calls:
  1737 ;;		Nothing
  1738 ;; This function is called by:
  1739 ;;		_main
  1740 ;; This function uses a non-reentrant model
  1741 ;;
  1742                           
  1743  07DF                     _LECTURA_EEPROM:	
  1744                           ;psect for function _LECTURA_EEPROM
  1745                           
  1746                           
  1747                           ;incstack = 0
  1748                           ; Regs used in _LECTURA_EEPROM: [wreg]
  1749                           ;LECTURA_EEPROM@DIRECCION stored from wreg
  1750  07DF  1683               	bsf	3,5	;RP0=1, select bank1
  1751  07E0  1303               	bcf	3,6	;RP1=0, select bank1
  1752  07E1  00CE               	movwf	LECTURA_EEPROM@DIRECCION^(0+128)
  1753  07E2                     l2596:
  1754                           
  1755                           ;Maestro4EEPROMEUSART.c: 480:     EEADR = DIRECCION;
  1756  07E2  084E               	movf	LECTURA_EEPROM@DIRECCION^(0+128),w
  1757  07E3  1283               	bcf	3,5	;RP0=0, select bank2
  1758  07E4  1703               	bsf	3,6	;RP1=1, select bank2
  1759  07E5  008D               	movwf	13	;volatile
  1760  07E6                     l2598:
  1761                           
  1762                           ;Maestro4EEPROMEUSART.c: 481:     EECON1bits.EEPGD = 0;
  1763  07E6  1683               	bsf	3,5	;RP0=1, select bank3
  1764  07E7  1703               	bsf	3,6	;RP1=1, select bank3
  1765  07E8  138C               	bcf	12,7	;volsfr
  1766  07E9                     l2600:
  1767                           
  1768                           ;Maestro4EEPROMEUSART.c: 482:     EECON1bits.RD = 1;
  1769  07E9  140C               	bsf	12,0	;volsfr
  1770                           
  1771                           ;Maestro4EEPROMEUSART.c: 483:     return EEDAT;
  1772  07EA  1283               	bcf	3,5	;RP0=0, select bank2
  1773  07EB  1703               	bsf	3,6	;RP1=1, select bank2
  1774  07EC  080C               	movf	12,w	;volatile
  1775  07ED                     l272:
  1776  07ED  0008               	return
  1777  07EE                     __end_of_LECTURA_EEPROM:
  1778                           
  1779                           	psect	text3
  1780  084A                     __ptext3:	
  1781 ;; *************** function _ESCRITURA_EEPROM *****************
  1782 ;; Defined at:
  1783 ;;		line 486 in file "Maestro4EEPROMEUSART.c"
  1784 ;; Parameters:    Size  Location     Type
  1785 ;;  DIRECCION       1    wreg     unsigned char 
  1786 ;;  DATA            1   21[BANK1 ] unsigned char 
  1787 ;; Auto vars:     Size  Location     Type
  1788 ;;  DIRECCION       1   22[BANK1 ] unsigned char 
  1789 ;; Return value:  Size  Location     Type
  1790 ;;                  1    wreg      void 
  1791 ;; Registers used:
  1792 ;;		wreg
  1793 ;; Tracked objects:
  1794 ;;		On entry : 0/0
  1795 ;;		On exit  : 0/0
  1796 ;;		Unchanged: 0/0
  1797 ;; Data sizes:     COMMON   BANK0   BANK1   BANK3   BANK2
  1798 ;;      Params:         0       0       1       0       0
  1799 ;;      Locals:         0       0       1       0       0
  1800 ;;      Temps:          0       0       0       0       0
  1801 ;;      Totals:         0       0       2       0       0
  1802 ;;Total ram usage:        2 bytes
  1803 ;; Hardware stack levels used: 1
  1804 ;; Hardware stack levels required when called: 4
  1805 ;; This function calls:
  1806 ;;		Nothing
  1807 ;; This function is called by:
  1808 ;;		_main
  1809 ;; This function uses a non-reentrant model
  1810 ;;
  1811                           
  1812  084A                     _ESCRITURA_EEPROM:	
  1813                           ;psect for function _ESCRITURA_EEPROM
  1814                           
  1815                           
  1816                           ;incstack = 0
  1817                           ; Regs used in _ESCRITURA_EEPROM: [wreg]
  1818                           ;ESCRITURA_EEPROM@DIRECCION stored from wreg
  1819  084A  1683               	bsf	3,5	;RP0=1, select bank1
  1820  084B  1303               	bcf	3,6	;RP1=0, select bank1
  1821  084C  00CF               	movwf	ESCRITURA_EEPROM@DIRECCION^(0+128)
  1822  084D                     l2586:
  1823                           
  1824                           ;Maestro4EEPROMEUSART.c: 487:     EEADR = DIRECCION;
  1825  084D  084F               	movf	ESCRITURA_EEPROM@DIRECCION^(0+128),w
  1826  084E  1283               	bcf	3,5	;RP0=0, select bank2
  1827  084F  1703               	bsf	3,6	;RP1=1, select bank2
  1828  0850  008D               	movwf	13	;volatile
  1829                           
  1830                           ;Maestro4EEPROMEUSART.c: 488:     EEDAT = DATA;
  1831  0851  1683               	bsf	3,5	;RP0=1, select bank1
  1832  0852  1303               	bcf	3,6	;RP1=0, select bank1
  1833  0853  084E               	movf	ESCRITURA_EEPROM@DATA^(0+128),w
  1834  0854  1283               	bcf	3,5	;RP0=0, select bank2
  1835  0855  1703               	bsf	3,6	;RP1=1, select bank2
  1836  0856  008C               	movwf	12	;volatile
  1837  0857                     l2588:
  1838                           
  1839                           ;Maestro4EEPROMEUSART.c: 489:     EECON1bits.EEPGD = 0;
  1840  0857  1683               	bsf	3,5	;RP0=1, select bank3
  1841  0858  1703               	bsf	3,6	;RP1=1, select bank3
  1842  0859  138C               	bcf	12,7	;volsfr
  1843  085A                     l2590:
  1844                           
  1845                           ;Maestro4EEPROMEUSART.c: 490:     EECON1bits.WREN = 1;
  1846  085A  150C               	bsf	12,2	;volsfr
  1847  085B                     l2592:
  1848                           
  1849                           ;Maestro4EEPROMEUSART.c: 492:     INTCONbits.GIE = 0;
  1850  085B  138B               	bcf	11,7	;volatile
  1851                           
  1852                           ;Maestro4EEPROMEUSART.c: 493:     EECON2 = 0x55;
  1853  085C  3055               	movlw	85
  1854  085D  008D               	movwf	13	;volsfr
  1855                           
  1856                           ;Maestro4EEPROMEUSART.c: 494:     EECON2 = 0xAA;
  1857  085E  30AA               	movlw	170
  1858  085F  008D               	movwf	13	;volsfr
  1859  0860                     l2594:
  1860                           
  1861                           ;Maestro4EEPROMEUSART.c: 496:     EECON1bits.WR = 1;
  1862  0860  148C               	bsf	12,1	;volsfr
  1863  0861                     l275:	
  1864                           ;Maestro4EEPROMEUSART.c: 498:     while(!PIR2bits.EEIF);
  1865                           
  1866  0861  1283               	bcf	3,5	;RP0=0, select bank0
  1867  0862  1303               	bcf	3,6	;RP1=0, select bank0
  1868  0863  1E0D               	btfss	13,4	;volatile
  1869  0864  2866               	goto	u3441
  1870  0865  2867               	goto	u3440
  1871  0866                     u3441:
  1872  0866  2861               	goto	l275
  1873  0867                     u3440:
  1874  0867                     l277:
  1875                           
  1876                           ;Maestro4EEPROMEUSART.c: 499:     PIR2bits.EEIF = 0;
  1877  0867  120D               	bcf	13,4	;volatile
  1878                           
  1879                           ;Maestro4EEPROMEUSART.c: 501:     EECON1bits.WREN = 0;
  1880  0868  1683               	bsf	3,5	;RP0=1, select bank3
  1881  0869  1703               	bsf	3,6	;RP1=1, select bank3
  1882  086A  110C               	bcf	12,2	;volsfr
  1883                           
  1884                           ;Maestro4EEPROMEUSART.c: 502:     INTCONbits.RBIF = 0;
  1885  086B  100B               	bcf	11,0	;volatile
  1886                           
  1887                           ;Maestro4EEPROMEUSART.c: 503:     INTCONbits.GIE = 1;
  1888  086C  178B               	bsf	11,7	;volatile
  1889  086D                     l278:
  1890  086D  0008               	return
  1891  086E                     __end_of_ESCRITURA_EEPROM:
  1892                           
  1893                           	psect	text4
  1894  0024                     __ptext4:	
  1895 ;; *************** function _isr *****************
  1896 ;; Defined at:
  1897 ;;		line 83 in file "Maestro4EEPROMEUSART.c"
  1898 ;; Parameters:    Size  Location     Type
  1899 ;;		None
  1900 ;; Auto vars:     Size  Location     Type
  1901 ;;		None
  1902 ;; Return value:  Size  Location     Type
  1903 ;;                  1    wreg      void 
  1904 ;; Registers used:
  1905 ;;		wreg, status,2, status,0, btemp+1, pclath, cstack
  1906 ;; Tracked objects:
  1907 ;;		On entry : 0/0
  1908 ;;		On exit  : 0/0
  1909 ;;		Unchanged: 0/0
  1910 ;; Data sizes:     COMMON   BANK0   BANK1   BANK3   BANK2
  1911 ;;      Params:         0       0       0       0       0
  1912 ;;      Locals:         0       0       0       0       0
  1913 ;;      Temps:          0       0       8       0       0
  1914 ;;      Totals:         0       0       8       0       0
  1915 ;;Total ram usage:        8 bytes
  1916 ;; Hardware stack levels used: 1
  1917 ;; Hardware stack levels required when called: 3
  1918 ;; This function calls:
  1919 ;;		_map
  1920 ;; This function is called by:
  1921 ;;		Interrupt level 1
  1922 ;; This function uses a non-reentrant model
  1923 ;;
  1924                           
  1925  0024                     _isr:	
  1926                           ;psect for function _isr
  1927                           
  1928  0024                     i1l2604:
  1929                           
  1930                           ;Maestro4EEPROMEUSART.c: 84:     if(INTCONbits.RBIF){
  1931  0024  1C0B               	btfss	11,0	;volatile
  1932  0025  2827               	goto	u345_21
  1933  0026  2828               	goto	u345_20
  1934  0027                     u345_21:
  1935  0027  286F               	goto	i1l159
  1936  0028                     u345_20:
  1937  0028                     i1l2606:
  1938                           
  1939                           ;Maestro4EEPROMEUSART.c: 85:         if(!PORTBbits.RB0){
  1940  0028  1283               	bcf	3,5	;RP0=0, select bank0
  1941  0029  1303               	bcf	3,6	;RP1=0, select bank0
  1942  002A  1806               	btfsc	6,0	;volatile
  1943  002B  282D               	goto	u346_21
  1944  002C  282E               	goto	u346_20
  1945  002D                     u346_21:
  1946  002D  2843               	goto	i1l160
  1947  002E                     u346_20:
  1948  002E                     i1l2608:
  1949                           
  1950                           ;Maestro4EEPROMEUSART.c: 86:             MODO++;
  1951  002E  3001               	movlw	1
  1952  002F  1683               	bsf	3,5	;RP0=1, select bank1
  1953  0030  1303               	bcf	3,6	;RP1=0, select bank1
  1954  0031  00C6               	movwf	??_isr^(0+128)
  1955  0032  0846               	movf	??_isr^(0+128),w
  1956  0033  07B8               	addwf	_MODO^(0+128),f
  1957  0034                     i1l2610:
  1958                           
  1959                           ;Maestro4EEPROMEUSART.c: 87:             if (MODO > 2){
  1960  0034  3003               	movlw	3
  1961  0035  0238               	subwf	_MODO^(0+128),w
  1962  0036  1C03               	skipc
  1963  0037  2839               	goto	u347_21
  1964  0038  283A               	goto	u347_20
  1965  0039                     u347_21:
  1966  0039  283B               	goto	i1l2614
  1967  003A                     u347_20:
  1968  003A                     i1l2612:
  1969                           
  1970                           ;Maestro4EEPROMEUSART.c: 88:                 MODO = 0;
  1971  003A  01B8               	clrf	_MODO^(0+128)
  1972  003B                     i1l2614:
  1973                           
  1974                           ;Maestro4EEPROMEUSART.c: 91:             if(MODO == 0){
  1975  003B  0838               	movf	_MODO^(0+128),w
  1976  003C  1D03               	btfss	3,2
  1977  003D  283F               	goto	u348_21
  1978  003E  2840               	goto	u348_20
  1979  003F                     u348_21:
  1980  003F  286E               	goto	i1l163
  1981  0040                     u348_20:
  1982  0040                     i1l2616:
  1983                           
  1984                           ;Maestro4EEPROMEUSART.c: 92:                 BANDERA_MODO2A0 = 1;
  1985  0040  01A6               	clrf	_BANDERA_MODO2A0^(0+128)
  1986  0041  0AA6               	incf	_BANDERA_MODO2A0^(0+128),f
  1987  0042  286E               	goto	i1l163
  1988  0043                     i1l160:	
  1989                           ;Maestro4EEPROMEUSART.c: 102:         else if(!PORTBbits.RB1){
  1990                           
  1991  0043  1886               	btfsc	6,1	;volatile
  1992  0044  2846               	goto	u349_21
  1993  0045  2847               	goto	u349_20
  1994  0046                     u349_21:
  1995  0046  2859               	goto	i1l164
  1996  0047                     u349_20:
  1997  0047                     i1l2618:
  1998                           
  1999                           ;Maestro4EEPROMEUSART.c: 103:             if(MODO == 0){
  2000  0047  1683               	bsf	3,5	;RP0=1, select bank1
  2001  0048  1303               	bcf	3,6	;RP1=0, select bank1
  2002  0049  0838               	movf	_MODO^(0+128),w
  2003  004A  1D03               	btfss	3,2
  2004  004B  284D               	goto	u350_21
  2005  004C  284E               	goto	u350_20
  2006  004D                     u350_21:
  2007  004D  2851               	goto	i1l2622
  2008  004E                     u350_20:
  2009  004E                     i1l2620:
  2010                           
  2011                           ;Maestro4EEPROMEUSART.c: 104:                 BANDERA_E1 = 1;
  2012  004E  01AD               	clrf	_BANDERA_E1^(0+128)
  2013  004F  0AAD               	incf	_BANDERA_E1^(0+128),f
  2014                           
  2015                           ;Maestro4EEPROMEUSART.c: 105:             }
  2016  0050  286E               	goto	i1l163
  2017  0051                     i1l2622:
  2018  0051  0338               	decf	_MODO^(0+128),w
  2019  0052  1D03               	btfss	3,2
  2020  0053  2855               	goto	u351_21
  2021  0054  2856               	goto	u351_20
  2022  0055                     u351_21:
  2023  0055  286E               	goto	i1l163
  2024  0056                     u351_20:
  2025  0056                     i1l2624:
  2026                           
  2027                           ;Maestro4EEPROMEUSART.c: 107:                 BANDERA_L1 = 1;
  2028  0056  01AF               	clrf	_BANDERA_L1^(0+128)
  2029  0057  0AAF               	incf	_BANDERA_L1^(0+128),f
  2030  0058  286E               	goto	i1l163
  2031  0059                     i1l164:	
  2032                           ;Maestro4EEPROMEUSART.c: 110:         else if(!PORTBbits.RB2){
  2033                           
  2034  0059  1906               	btfsc	6,2	;volatile
  2035  005A  285C               	goto	u352_21
  2036  005B  285D               	goto	u352_20
  2037  005C                     u352_21:
  2038  005C  286E               	goto	i1l163
  2039  005D                     u352_20:
  2040  005D                     i1l2626:
  2041                           
  2042                           ;Maestro4EEPROMEUSART.c: 111:             if(MODO == 0){
  2043  005D  1683               	bsf	3,5	;RP0=1, select bank1
  2044  005E  1303               	bcf	3,6	;RP1=0, select bank1
  2045  005F  0838               	movf	_MODO^(0+128),w
  2046  0060  1D03               	btfss	3,2
  2047  0061  2863               	goto	u353_21
  2048  0062  2864               	goto	u353_20
  2049  0063                     u353_21:
  2050  0063  2867               	goto	i1l2630
  2051  0064                     u353_20:
  2052  0064                     i1l2628:
  2053                           
  2054                           ;Maestro4EEPROMEUSART.c: 112:                 BANDERA_E2 = 1;
  2055  0064  01AC               	clrf	_BANDERA_E2^(0+128)
  2056  0065  0AAC               	incf	_BANDERA_E2^(0+128),f
  2057                           
  2058                           ;Maestro4EEPROMEUSART.c: 113:             }
  2059  0066  286E               	goto	i1l163
  2060  0067                     i1l2630:
  2061  0067  0338               	decf	_MODO^(0+128),w
  2062  0068  1D03               	btfss	3,2
  2063  0069  286B               	goto	u354_21
  2064  006A  286C               	goto	u354_20
  2065  006B                     u354_21:
  2066  006B  286E               	goto	i1l163
  2067  006C                     u354_20:
  2068  006C                     i1l2632:
  2069                           
  2070                           ;Maestro4EEPROMEUSART.c: 115:                 BANDERA_L2 = 1;
  2071  006C  01AE               	clrf	_BANDERA_L2^(0+128)
  2072  006D  0AAE               	incf	_BANDERA_L2^(0+128),f
  2073  006E                     i1l163:
  2074                           
  2075                           ;Maestro4EEPROMEUSART.c: 118:         INTCONbits.RBIF = 0;
  2076  006E  100B               	bcf	11,0	;volatile
  2077  006F                     i1l159:	
  2078                           ;Maestro4EEPROMEUSART.c: 119:     }
  2079                           
  2080                           
  2081                           ;Maestro4EEPROMEUSART.c: 121:     if(PIR1bits.ADIF){
  2082  006F  1283               	bcf	3,5	;RP0=0, select bank0
  2083  0070  1F0C               	btfss	12,6	;volatile
  2084  0071  2873               	goto	u355_21
  2085  0072  2874               	goto	u355_20
  2086  0073                     u355_21:
  2087  0073  2B25               	goto	i1l2764
  2088  0074                     u355_20:
  2089  0074                     i1l2634:
  2090                           
  2091                           ;Maestro4EEPROMEUSART.c: 122:         if(ADCON0bits.CHS == 0){
  2092  0074  0C1F               	rrf	31,w	;volatile
  2093  0075  1683               	bsf	3,5	;RP0=1, select bank1
  2094  0076  1303               	bcf	3,6	;RP1=0, select bank1
  2095  0077  00C6               	movwf	??_isr^(0+128)
  2096  0078  0C46               	rrf	??_isr^(0+128),w
  2097  0079  390F               	andlw	15
  2098  007A  3A00               	xorlw	0
  2099  007B  1D03               	skipz
  2100  007C  287E               	goto	u356_21
  2101  007D  287F               	goto	u356_20
  2102  007E                     u356_21:
  2103  007E  2930               	goto	i1l2668
  2104  007F                     u356_20:
  2105  007F                     i1l2636:
  2106                           
  2107                           ;Maestro4EEPROMEUSART.c: 123:             if(MODO == 0){
  2108  007F  0838               	movf	_MODO^(0+128),w
  2109  0080  1D03               	btfss	3,2
  2110  0081  2883               	goto	u357_21
  2111  0082  2884               	goto	u357_20
  2112  0083                     u357_21:
  2113  0083  28C5               	goto	i1l2648
  2114  0084                     u357_20:
  2115  0084                     i1l2638:
  2116                           
  2117                           ;Maestro4EEPROMEUSART.c: 124:                 if(BANDERA_MODO2A0 == 1){
  2118  0084  0326               	decf	_BANDERA_MODO2A0^(0+128),w
  2119  0085  1D03               	btfss	3,2
  2120  0086  2888               	goto	u358_21
  2121  0087  2889               	goto	u358_20
  2122  0088                     u358_21:
  2123  0088  289D               	goto	i1l2644
  2124  0089                     u358_20:
  2125  0089                     i1l2640:
  2126                           
  2127                           ;Maestro4EEPROMEUSART.c: 125:                     _delay((unsigned long)((1000)*(1000000
      +                          /4000.0)));
  2128  0089  3002               	movlw	2
  2129  008A  1683               	bsf	3,5	;RP0=1, select bank1
  2130  008B  1303               	bcf	3,6	;RP1=0, select bank1
  2131  008C  00C8               	movwf	(??_isr^(0+128)+2)
  2132  008D  3045               	movlw	69
  2133  008E  00C7               	movwf	(??_isr^(0+128)+1)
  2134  008F  30A9               	movlw	169
  2135  0090  00C6               	movwf	??_isr^(0+128)
  2136  0091                     u425_27:
  2137  0091  0BC6               	decfsz	??_isr^(0+128),f
  2138  0092  2891               	goto	u425_27
  2139  0093  0BC7               	decfsz	(??_isr^(0+128)+1),f
  2140  0094  2891               	goto	u425_27
  2141  0095  0BC8               	decfsz	(??_isr^(0+128)+2),f
  2142  0096  2891               	goto	u425_27
  2143  0097                     i1l2642:
  2144                           
  2145                           ;Maestro4EEPROMEUSART.c: 126:                     CONT3++;
  2146  0097  3001               	movlw	1
  2147  0098  1683               	bsf	3,5	;RP0=1, select bank1
  2148  0099  1303               	bcf	3,6	;RP1=0, select bank1
  2149  009A  00C6               	movwf	??_isr^(0+128)
  2150  009B  0846               	movf	??_isr^(0+128),w
  2151  009C  07A8               	addwf	_CONT3^(0+128),f
  2152  009D                     i1l2644:
  2153                           
  2154                           ;Maestro4EEPROMEUSART.c: 128:                 POT_1 = ADRESH;
  2155  009D  1283               	bcf	3,5	;RP0=0, select bank0
  2156  009E  1303               	bcf	3,6	;RP1=0, select bank0
  2157  009F  081E               	movf	30,w	;volatile
  2158  00A0  1683               	bsf	3,5	;RP0=1, select bank1
  2159  00A1  1303               	bcf	3,6	;RP1=0, select bank1
  2160  00A2  00C6               	movwf	??_isr^(0+128)
  2161  00A3  0846               	movf	??_isr^(0+128),w
  2162  00A4  00B7               	movwf	_POT_1^(0+128)
  2163  00A5                     i1l2646:
  2164                           
  2165                           ;Maestro4EEPROMEUSART.c: 129:                 POT_1_M = map(POT_1, 0, 255, 135, 580);
  2166  00A5  0837               	movf	_POT_1^(0+128),w
  2167  00A6  00C6               	movwf	??_isr^(0+128)
  2168  00A7  01C7               	clrf	(??_isr^(0+128)+1)
  2169  00A8  0846               	movf	??_isr^(0+128),w
  2170  00A9  00BE               	movwf	map@x^(0+128)
  2171  00AA  0847               	movf	(??_isr+1)^(0+128),w
  2172  00AB  00BF               	movwf	(map@x+1)^(0+128)
  2173  00AC  01C0               	clrf	map@x0^(0+128)
  2174  00AD  30FF               	movlw	255
  2175  00AE  00C8               	movwf	(??_isr+2)^(0+128)
  2176  00AF  0848               	movf	(??_isr+2)^(0+128),w
  2177  00B0  00C1               	movwf	map@x1^(0+128)
  2178  00B1  3087               	movlw	135
  2179  00B2  00C2               	movwf	map@y0^(0+128)
  2180  00B3  3000               	movlw	0
  2181  00B4  00C3               	movwf	(map@y0^(0+128)+1)
  2182  00B5  3044               	movlw	68
  2183  00B6  00C4               	movwf	map@y1^(0+128)
  2184  00B7  3002               	movlw	2
  2185  00B8  00C5               	movwf	(map@y1^(0+128)+1)
  2186  00B9  120A  158A  210C  120A  118A  	fcall	_map
  2187  00BE  1683               	bsf	3,5	;RP0=1, select bank1
  2188  00BF  1303               	bcf	3,6	;RP1=0, select bank1
  2189  00C0  083F               	movf	(?_map+1)^(0+128),w
  2190  00C1  00A5               	movwf	(_POT_1_M+1)^(0+128)
  2191  00C2  083E               	movf	?_map^(0+128),w
  2192  00C3  00A4               	movwf	_POT_1_M^(0+128)
  2193                           
  2194                           ;Maestro4EEPROMEUSART.c: 130:             }
  2195  00C4  2910               	goto	i1l2664
  2196  00C5                     i1l2648:
  2197  00C5  0338               	decf	_MODO^(0+128),w
  2198  00C6  1D03               	btfss	3,2
  2199  00C7  28C9               	goto	u359_21
  2200  00C8  28CA               	goto	u359_20
  2201  00C9                     u359_21:
  2202  00C9  28E8               	goto	i1l2660
  2203  00CA                     u359_20:
  2204  00CA                     i1l2650:
  2205                           
  2206                           ;Maestro4EEPROMEUSART.c: 132:                 if(BANDERA_R == 1){
  2207  00CA  032B               	decf	_BANDERA_R^(0+128),w
  2208  00CB  1D03               	btfss	3,2
  2209  00CC  28CE               	goto	u360_21
  2210  00CD  28CF               	goto	u360_20
  2211  00CE                     u360_21:
  2212  00CE  28E3               	goto	i1l2656
  2213  00CF                     u360_20:
  2214  00CF                     i1l2652:
  2215                           
  2216                           ;Maestro4EEPROMEUSART.c: 133:                     _delay((unsigned long)((1000)*(1000000
      +                          /4000.0)));
  2217  00CF  3002               	movlw	2
  2218  00D0  1683               	bsf	3,5	;RP0=1, select bank1
  2219  00D1  1303               	bcf	3,6	;RP1=0, select bank1
  2220  00D2  00C8               	movwf	(??_isr^(0+128)+2)
  2221  00D3  3045               	movlw	69
  2222  00D4  00C7               	movwf	(??_isr^(0+128)+1)
  2223  00D5  30A9               	movlw	169
  2224  00D6  00C6               	movwf	??_isr^(0+128)
  2225  00D7                     u426_27:
  2226  00D7  0BC6               	decfsz	??_isr^(0+128),f
  2227  00D8  28D7               	goto	u426_27
  2228  00D9  0BC7               	decfsz	(??_isr^(0+128)+1),f
  2229  00DA  28D7               	goto	u426_27
  2230  00DB  0BC8               	decfsz	(??_isr^(0+128)+2),f
  2231  00DC  28D7               	goto	u426_27
  2232  00DD                     i1l2654:
  2233                           
  2234                           ;Maestro4EEPROMEUSART.c: 134:                     CONT++;
  2235  00DD  3001               	movlw	1
  2236  00DE  1683               	bsf	3,5	;RP0=1, select bank1
  2237  00DF  1303               	bcf	3,6	;RP1=0, select bank1
  2238  00E0  00C6               	movwf	??_isr^(0+128)
  2239  00E1  0846               	movf	??_isr^(0+128),w
  2240  00E2  07A9               	addwf	_CONT^(0+128),f
  2241  00E3                     i1l2656:
  2242                           
  2243                           ;Maestro4EEPROMEUSART.c: 136:                 POT_1_E = POT_1;
  2244  00E3  0837               	movf	_POT_1^(0+128),w
  2245  00E4  00C6               	movwf	??_isr^(0+128)
  2246  00E5  0846               	movf	??_isr^(0+128),w
  2247  00E6  00B3               	movwf	_POT_1_E^(0+128)
  2248  00E7  28A5               	goto	i1l2646
  2249  00E8                     i1l2660:
  2250  00E8  3002               	movlw	2
  2251  00E9  0638               	xorwf	_MODO^(0+128),w
  2252  00EA  1D03               	btfss	3,2
  2253  00EB  28ED               	goto	u361_21
  2254  00EC  28EE               	goto	u361_20
  2255  00ED                     u361_21:
  2256  00ED  2910               	goto	i1l2664
  2257  00EE                     u361_20:
  2258  00EE                     i1l2662:
  2259                           
  2260                           ;Maestro4EEPROMEUSART.c: 140:                 POT_1_M = map(POT_1_E, 5, 127, 135, 580);
  2261  00EE  0833               	movf	_POT_1_E^(0+128),w
  2262  00EF  00C6               	movwf	??_isr^(0+128)
  2263  00F0  01C7               	clrf	(??_isr^(0+128)+1)
  2264  00F1  0846               	movf	??_isr^(0+128),w
  2265  00F2  00BE               	movwf	map@x^(0+128)
  2266  00F3  0847               	movf	(??_isr+1)^(0+128),w
  2267  00F4  00BF               	movwf	(map@x+1)^(0+128)
  2268  00F5  3005               	movlw	5
  2269  00F6  00C8               	movwf	(??_isr+2)^(0+128)
  2270  00F7  0848               	movf	(??_isr+2)^(0+128),w
  2271  00F8  00C0               	movwf	map@x0^(0+128)
  2272  00F9  307F               	movlw	127
  2273  00FA  00C9               	movwf	(??_isr+3)^(0+128)
  2274  00FB  0849               	movf	(??_isr+3)^(0+128),w
  2275  00FC  00C1               	movwf	map@x1^(0+128)
  2276  00FD  3087               	movlw	135
  2277  00FE  00C2               	movwf	map@y0^(0+128)
  2278  00FF  3000               	movlw	0
  2279  0100  00C3               	movwf	(map@y0^(0+128)+1)
  2280  0101  3044               	movlw	68
  2281  0102  00C4               	movwf	map@y1^(0+128)
  2282  0103  3002               	movlw	2
  2283  0104  00C5               	movwf	(map@y1^(0+128)+1)
  2284  0105  120A  158A  210C  120A  118A  	fcall	_map
  2285  010A  1683               	bsf	3,5	;RP0=1, select bank1
  2286  010B  1303               	bcf	3,6	;RP1=0, select bank1
  2287  010C  083F               	movf	(?_map+1)^(0+128),w
  2288  010D  00A5               	movwf	(_POT_1_M+1)^(0+128)
  2289  010E  083E               	movf	?_map^(0+128),w
  2290  010F  00A4               	movwf	_POT_1_M^(0+128)
  2291  0110                     i1l2664:
  2292                           
  2293                           ;Maestro4EEPROMEUSART.c: 143:             CCPR1L = (uint8_t)(POT_1_M>>2);
  2294  0110  0825               	movf	(_POT_1_M+1)^(0+128),w
  2295  0111  00C7               	movwf	(??_isr^(0+128)+1)
  2296  0112  0824               	movf	_POT_1_M^(0+128),w
  2297  0113  00C6               	movwf	??_isr^(0+128)
  2298  0114  1003               	clrc
  2299  0115  0CC7               	rrf	(??_isr^(0+128)+1),f
  2300  0116  0CC6               	rrf	??_isr^(0+128),f
  2301  0117  1003               	clrc
  2302  0118  0CC7               	rrf	(??_isr^(0+128)+1),f
  2303  0119  0CC6               	rrf	??_isr^(0+128),f
  2304  011A  0846               	movf	??_isr^(0+128),w
  2305  011B  1283               	bcf	3,5	;RP0=0, select bank0
  2306  011C  1303               	bcf	3,6	;RP1=0, select bank0
  2307  011D  0095               	movwf	21	;volatile
  2308  011E                     i1l2666:
  2309                           
  2310                           ;Maestro4EEPROMEUSART.c: 144:             CCP1CONbits.DC1B = POT_1_M & 0b11;
  2311  011E  1683               	bsf	3,5	;RP0=1, select bank1
  2312  011F  1303               	bcf	3,6	;RP1=0, select bank1
  2313  0120  0824               	movf	_POT_1_M^(0+128),w
  2314  0121  3903               	andlw	3
  2315  0122  00C6               	movwf	??_isr^(0+128)
  2316  0123  0EC6               	swapf	??_isr^(0+128),f
  2317  0124  1283               	bcf	3,5	;RP0=0, select bank0
  2318  0125  1303               	bcf	3,6	;RP1=0, select bank0
  2319  0126  0817               	movf	23,w	;volatile
  2320  0127  1683               	bsf	3,5	;RP0=1, select bank1
  2321  0128  1303               	bcf	3,6	;RP1=0, select bank1
  2322  0129  0646               	xorwf	??_isr^(0+128),w
  2323  012A  39CF               	andlw	-49
  2324  012B  0646               	xorwf	??_isr^(0+128),w
  2325  012C  1283               	bcf	3,5	;RP0=0, select bank0
  2326  012D  1303               	bcf	3,6	;RP1=0, select bank0
  2327  012E  0097               	movwf	23	;volatile
  2328                           
  2329                           ;Maestro4EEPROMEUSART.c: 146:         }
  2330  012F  2B22               	goto	i1l2762
  2331  0130                     i1l2668:
  2332  0130  1283               	bcf	3,5	;RP0=0, select bank0
  2333  0131  1303               	bcf	3,6	;RP1=0, select bank0
  2334  0132  0C1F               	rrf	31,w	;volatile
  2335  0133  1683               	bsf	3,5	;RP0=1, select bank1
  2336  0134  1303               	bcf	3,6	;RP1=0, select bank1
  2337  0135  00C6               	movwf	??_isr^(0+128)
  2338  0136  0C46               	rrf	??_isr^(0+128),w
  2339  0137  390F               	andlw	15
  2340  0138  3A01               	xorlw	1
  2341  0139  1D03               	skipz
  2342  013A  293C               	goto	u362_21
  2343  013B  293D               	goto	u362_20
  2344  013C                     u362_21:
  2345  013C  2A03               	goto	i1l2702
  2346  013D                     u362_20:
  2347  013D                     i1l2670:
  2348                           
  2349                           ;Maestro4EEPROMEUSART.c: 148:             if(MODO == 0){
  2350  013D  0838               	movf	_MODO^(0+128),w
  2351  013E  1D03               	btfss	3,2
  2352  013F  2941               	goto	u363_21
  2353  0140  2942               	goto	u363_20
  2354  0141                     u363_21:
  2355  0141  2983               	goto	i1l2682
  2356  0142                     u363_20:
  2357  0142                     i1l2672:
  2358                           
  2359                           ;Maestro4EEPROMEUSART.c: 149:                 if(BANDERA_MODO2A0 == 1){
  2360  0142  0326               	decf	_BANDERA_MODO2A0^(0+128),w
  2361  0143  1D03               	btfss	3,2
  2362  0144  2946               	goto	u364_21
  2363  0145  2947               	goto	u364_20
  2364  0146                     u364_21:
  2365  0146  295B               	goto	i1l2678
  2366  0147                     u364_20:
  2367  0147                     i1l2674:
  2368                           
  2369                           ;Maestro4EEPROMEUSART.c: 150:                     _delay((unsigned long)((1000)*(1000000
      +                          /4000.0)));
  2370  0147  3002               	movlw	2
  2371  0148  1683               	bsf	3,5	;RP0=1, select bank1
  2372  0149  1303               	bcf	3,6	;RP1=0, select bank1
  2373  014A  00C8               	movwf	(??_isr^(0+128)+2)
  2374  014B  3045               	movlw	69
  2375  014C  00C7               	movwf	(??_isr^(0+128)+1)
  2376  014D  30A9               	movlw	169
  2377  014E  00C6               	movwf	??_isr^(0+128)
  2378  014F                     u427_27:
  2379  014F  0BC6               	decfsz	??_isr^(0+128),f
  2380  0150  294F               	goto	u427_27
  2381  0151  0BC7               	decfsz	(??_isr^(0+128)+1),f
  2382  0152  294F               	goto	u427_27
  2383  0153  0BC8               	decfsz	(??_isr^(0+128)+2),f
  2384  0154  294F               	goto	u427_27
  2385  0155                     i1l2676:
  2386                           
  2387                           ;Maestro4EEPROMEUSART.c: 151:                     CONT3++;
  2388  0155  3001               	movlw	1
  2389  0156  1683               	bsf	3,5	;RP0=1, select bank1
  2390  0157  1303               	bcf	3,6	;RP1=0, select bank1
  2391  0158  00C6               	movwf	??_isr^(0+128)
  2392  0159  0846               	movf	??_isr^(0+128),w
  2393  015A  07A8               	addwf	_CONT3^(0+128),f
  2394  015B                     i1l2678:
  2395                           
  2396                           ;Maestro4EEPROMEUSART.c: 153:                 POT_2 = ADRESH;
  2397  015B  1283               	bcf	3,5	;RP0=0, select bank0
  2398  015C  1303               	bcf	3,6	;RP1=0, select bank0
  2399  015D  081E               	movf	30,w	;volatile
  2400  015E  1683               	bsf	3,5	;RP0=1, select bank1
  2401  015F  1303               	bcf	3,6	;RP1=0, select bank1
  2402  0160  00C6               	movwf	??_isr^(0+128)
  2403  0161  0846               	movf	??_isr^(0+128),w
  2404  0162  00B6               	movwf	_POT_2^(0+128)
  2405  0163                     i1l2680:
  2406                           
  2407                           ;Maestro4EEPROMEUSART.c: 154:                 POT_2_M = map(POT_2, 0, 255, 135, 580);
  2408  0163  0836               	movf	_POT_2^(0+128),w
  2409  0164  00C6               	movwf	??_isr^(0+128)
  2410  0165  01C7               	clrf	(??_isr^(0+128)+1)
  2411  0166  0846               	movf	??_isr^(0+128),w
  2412  0167  00BE               	movwf	map@x^(0+128)
  2413  0168  0847               	movf	(??_isr+1)^(0+128),w
  2414  0169  00BF               	movwf	(map@x+1)^(0+128)
  2415  016A  01C0               	clrf	map@x0^(0+128)
  2416  016B  30FF               	movlw	255
  2417  016C  00C8               	movwf	(??_isr+2)^(0+128)
  2418  016D  0848               	movf	(??_isr+2)^(0+128),w
  2419  016E  00C1               	movwf	map@x1^(0+128)
  2420  016F  3087               	movlw	135
  2421  0170  00C2               	movwf	map@y0^(0+128)
  2422  0171  3000               	movlw	0
  2423  0172  00C3               	movwf	(map@y0^(0+128)+1)
  2424  0173  3044               	movlw	68
  2425  0174  00C4               	movwf	map@y1^(0+128)
  2426  0175  3002               	movlw	2
  2427  0176  00C5               	movwf	(map@y1^(0+128)+1)
  2428  0177  120A  158A  210C  120A  118A  	fcall	_map
  2429  017C  1683               	bsf	3,5	;RP0=1, select bank1
  2430  017D  1303               	bcf	3,6	;RP1=0, select bank1
  2431  017E  083F               	movf	(?_map+1)^(0+128),w
  2432  017F  00A3               	movwf	(_POT_2_M+1)^(0+128)
  2433  0180  083E               	movf	?_map^(0+128),w
  2434  0181  00A2               	movwf	_POT_2_M^(0+128)
  2435                           
  2436                           ;Maestro4EEPROMEUSART.c: 155:             }
  2437  0182  29CA               	goto	i1l2696
  2438  0183                     i1l2682:
  2439  0183  0338               	decf	_MODO^(0+128),w
  2440  0184  1D03               	btfss	3,2
  2441  0185  2987               	goto	u365_21
  2442  0186  2988               	goto	u365_20
  2443  0187                     u365_21:
  2444  0187  29A2               	goto	i1l2692
  2445  0188                     u365_20:
  2446  0188                     i1l2684:
  2447                           
  2448                           ;Maestro4EEPROMEUSART.c: 157:                 if(BANDERA_R == 1){
  2449  0188  032B               	decf	_BANDERA_R^(0+128),w
  2450  0189  1D03               	btfss	3,2
  2451  018A  298C               	goto	u366_21
  2452  018B  298D               	goto	u366_20
  2453  018C                     u366_21:
  2454  018C  2963               	goto	i1l2680
  2455  018D                     u366_20:
  2456  018D                     i1l2686:
  2457                           
  2458                           ;Maestro4EEPROMEUSART.c: 158:                     _delay((unsigned long)((1000)*(1000000
      +                          /4000.0)));
  2459  018D  3002               	movlw	2
  2460  018E  1683               	bsf	3,5	;RP0=1, select bank1
  2461  018F  1303               	bcf	3,6	;RP1=0, select bank1
  2462  0190  00C8               	movwf	(??_isr^(0+128)+2)
  2463  0191  3045               	movlw	69
  2464  0192  00C7               	movwf	(??_isr^(0+128)+1)
  2465  0193  30A9               	movlw	169
  2466  0194  00C6               	movwf	??_isr^(0+128)
  2467  0195                     u428_27:
  2468  0195  0BC6               	decfsz	??_isr^(0+128),f
  2469  0196  2995               	goto	u428_27
  2470  0197  0BC7               	decfsz	(??_isr^(0+128)+1),f
  2471  0198  2995               	goto	u428_27
  2472  0199  0BC8               	decfsz	(??_isr^(0+128)+2),f
  2473  019A  2995               	goto	u428_27
  2474  019B                     i1l2688:
  2475                           
  2476                           ;Maestro4EEPROMEUSART.c: 159:                     CONT++;
  2477  019B  3001               	movlw	1
  2478  019C  1683               	bsf	3,5	;RP0=1, select bank1
  2479  019D  1303               	bcf	3,6	;RP1=0, select bank1
  2480  019E  00C6               	movwf	??_isr^(0+128)
  2481  019F  0846               	movf	??_isr^(0+128),w
  2482  01A0  07A9               	addwf	_CONT^(0+128),f
  2483  01A1  2963               	goto	i1l2680
  2484  01A2                     i1l2692:
  2485  01A2  3002               	movlw	2
  2486  01A3  0638               	xorwf	_MODO^(0+128),w
  2487  01A4  1D03               	btfss	3,2
  2488  01A5  29A7               	goto	u367_21
  2489  01A6  29A8               	goto	u367_20
  2490  01A7                     u367_21:
  2491  01A7  29CA               	goto	i1l2696
  2492  01A8                     u367_20:
  2493  01A8                     i1l2694:
  2494                           
  2495                           ;Maestro4EEPROMEUSART.c: 164:                 POT_2_M = map(POT_2_E, 5, 127, 135, 580);
  2496  01A8  0832               	movf	_POT_2_E^(0+128),w
  2497  01A9  00C6               	movwf	??_isr^(0+128)
  2498  01AA  01C7               	clrf	(??_isr^(0+128)+1)
  2499  01AB  0846               	movf	??_isr^(0+128),w
  2500  01AC  00BE               	movwf	map@x^(0+128)
  2501  01AD  0847               	movf	(??_isr+1)^(0+128),w
  2502  01AE  00BF               	movwf	(map@x+1)^(0+128)
  2503  01AF  3005               	movlw	5
  2504  01B0  00C8               	movwf	(??_isr+2)^(0+128)
  2505  01B1  0848               	movf	(??_isr+2)^(0+128),w
  2506  01B2  00C0               	movwf	map@x0^(0+128)
  2507  01B3  307F               	movlw	127
  2508  01B4  00C9               	movwf	(??_isr+3)^(0+128)
  2509  01B5  0849               	movf	(??_isr+3)^(0+128),w
  2510  01B6  00C1               	movwf	map@x1^(0+128)
  2511  01B7  3087               	movlw	135
  2512  01B8  00C2               	movwf	map@y0^(0+128)
  2513  01B9  3000               	movlw	0
  2514  01BA  00C3               	movwf	(map@y0^(0+128)+1)
  2515  01BB  3044               	movlw	68
  2516  01BC  00C4               	movwf	map@y1^(0+128)
  2517  01BD  3002               	movlw	2
  2518  01BE  00C5               	movwf	(map@y1^(0+128)+1)
  2519  01BF  120A  158A  210C  120A  118A  	fcall	_map
  2520  01C4  1683               	bsf	3,5	;RP0=1, select bank1
  2521  01C5  1303               	bcf	3,6	;RP1=0, select bank1
  2522  01C6  083F               	movf	(?_map+1)^(0+128),w
  2523  01C7  00A3               	movwf	(_POT_2_M+1)^(0+128)
  2524  01C8  083E               	movf	?_map^(0+128),w
  2525  01C9  00A2               	movwf	_POT_2_M^(0+128)
  2526  01CA                     i1l2696:
  2527                           
  2528                           ;Maestro4EEPROMEUSART.c: 167:             CCPR2L = (uint8_t)(POT_2_M>>2);
  2529  01CA  0823               	movf	(_POT_2_M+1)^(0+128),w
  2530  01CB  00C7               	movwf	(??_isr^(0+128)+1)
  2531  01CC  0822               	movf	_POT_2_M^(0+128),w
  2532  01CD  00C6               	movwf	??_isr^(0+128)
  2533  01CE  1003               	clrc
  2534  01CF  0CC7               	rrf	(??_isr^(0+128)+1),f
  2535  01D0  0CC6               	rrf	??_isr^(0+128),f
  2536  01D1  1003               	clrc
  2537  01D2  0CC7               	rrf	(??_isr^(0+128)+1),f
  2538  01D3  0CC6               	rrf	??_isr^(0+128),f
  2539  01D4  0846               	movf	??_isr^(0+128),w
  2540  01D5  1283               	bcf	3,5	;RP0=0, select bank0
  2541  01D6  1303               	bcf	3,6	;RP1=0, select bank0
  2542  01D7  009B               	movwf	27	;volatile
  2543  01D8                     i1l2698:
  2544                           
  2545                           ;Maestro4EEPROMEUSART.c: 168:             CCP2CONbits.DC2B0 = POT_2_M & 0b01;
  2546  01D8  1683               	bsf	3,5	;RP0=1, select bank1
  2547  01D9  1303               	bcf	3,6	;RP1=0, select bank1
  2548  01DA  0822               	movf	_POT_2_M^(0+128),w
  2549  01DB  3901               	andlw	1
  2550  01DC  00C6               	movwf	??_isr^(0+128)
  2551  01DD  0EC6               	swapf	??_isr^(0+128),f
  2552  01DE  1283               	bcf	3,5	;RP0=0, select bank0
  2553  01DF  1303               	bcf	3,6	;RP1=0, select bank0
  2554  01E0  081D               	movf	29,w	;volatile
  2555  01E1  1683               	bsf	3,5	;RP0=1, select bank1
  2556  01E2  1303               	bcf	3,6	;RP1=0, select bank1
  2557  01E3  0646               	xorwf	??_isr^(0+128),w
  2558  01E4  39EF               	andlw	-17
  2559  01E5  0646               	xorwf	??_isr^(0+128),w
  2560  01E6  1283               	bcf	3,5	;RP0=0, select bank0
  2561  01E7  1303               	bcf	3,6	;RP1=0, select bank0
  2562  01E8  009D               	movwf	29	;volatile
  2563  01E9                     i1l2700:
  2564                           
  2565                           ;Maestro4EEPROMEUSART.c: 169:             CCP2CONbits.DC2B1 = (POT_2_M & 0b10)>>1;
  2566  01E9  1683               	bsf	3,5	;RP0=1, select bank1
  2567  01EA  1303               	bcf	3,6	;RP1=0, select bank1
  2568  01EB  0823               	movf	(_POT_2_M+1)^(0+128),w
  2569  01EC  00C7               	movwf	(??_isr^(0+128)+1)
  2570  01ED  0822               	movf	_POT_2_M^(0+128),w
  2571  01EE  00C6               	movwf	??_isr^(0+128)
  2572  01EF  1003               	clrc
  2573  01F0  0CC7               	rrf	(??_isr^(0+128)+1),f
  2574  01F1  0CC6               	rrf	??_isr^(0+128),f
  2575  01F2  0846               	movf	??_isr^(0+128),w
  2576  01F3  3901               	andlw	1
  2577  01F4  00C8               	movwf	(??_isr+2)^(0+128)
  2578  01F5  0EC8               	swapf	(??_isr+2)^(0+128),f
  2579  01F6  0DC8               	rlf	(??_isr+2)^(0+128),f
  2580  01F7  1283               	bcf	3,5	;RP0=0, select bank0
  2581  01F8  1303               	bcf	3,6	;RP1=0, select bank0
  2582  01F9  081D               	movf	29,w	;volatile
  2583  01FA  1683               	bsf	3,5	;RP0=1, select bank1
  2584  01FB  1303               	bcf	3,6	;RP1=0, select bank1
  2585  01FC  0648               	xorwf	(??_isr+2)^(0+128),w
  2586  01FD  39DF               	andlw	-33
  2587  01FE  0648               	xorwf	(??_isr+2)^(0+128),w
  2588  01FF  1283               	bcf	3,5	;RP0=0, select bank0
  2589  0200  1303               	bcf	3,6	;RP1=0, select bank0
  2590  0201  009D               	movwf	29	;volatile
  2591                           
  2592                           ;Maestro4EEPROMEUSART.c: 170:         }
  2593  0202  2B22               	goto	i1l2762
  2594  0203                     i1l2702:
  2595  0203  1283               	bcf	3,5	;RP0=0, select bank0
  2596  0204  1303               	bcf	3,6	;RP1=0, select bank0
  2597  0205  0C1F               	rrf	31,w	;volatile
  2598  0206  1683               	bsf	3,5	;RP0=1, select bank1
  2599  0207  1303               	bcf	3,6	;RP1=0, select bank1
  2600  0208  00C6               	movwf	??_isr^(0+128)
  2601  0209  0C46               	rrf	??_isr^(0+128),w
  2602  020A  390F               	andlw	15
  2603  020B  3A02               	xorlw	2
  2604  020C  1D03               	skipz
  2605  020D  2A0F               	goto	u368_21
  2606  020E  2A10               	goto	u368_20
  2607  020F                     u368_21:
  2608  020F  2A98               	goto	i1l2732
  2609  0210                     u368_20:
  2610  0210                     i1l2704:
  2611                           
  2612                           ;Maestro4EEPROMEUSART.c: 172:             if(MODO == 0){
  2613  0210  0838               	movf	_MODO^(0+128),w
  2614  0211  1D03               	btfss	3,2
  2615  0212  2A14               	goto	u369_21
  2616  0213  2A15               	goto	u369_20
  2617  0214                     u369_21:
  2618  0214  2A37               	goto	i1l2714
  2619  0215                     u369_20:
  2620  0215                     i1l2706:
  2621                           
  2622                           ;Maestro4EEPROMEUSART.c: 173:                 if(BANDERA_MODO2A0 == 1){
  2623  0215  0326               	decf	_BANDERA_MODO2A0^(0+128),w
  2624  0216  1D03               	btfss	3,2
  2625  0217  2A19               	goto	u370_21
  2626  0218  2A1A               	goto	u370_20
  2627  0219                     u370_21:
  2628  0219  2A2E               	goto	i1l2712
  2629  021A                     u370_20:
  2630  021A                     i1l2708:
  2631                           
  2632                           ;Maestro4EEPROMEUSART.c: 174:                     _delay((unsigned long)((1000)*(1000000
      +                          /4000.0)));
  2633  021A  3002               	movlw	2
  2634  021B  1683               	bsf	3,5	;RP0=1, select bank1
  2635  021C  1303               	bcf	3,6	;RP1=0, select bank1
  2636  021D  00C8               	movwf	(??_isr^(0+128)+2)
  2637  021E  3045               	movlw	69
  2638  021F  00C7               	movwf	(??_isr^(0+128)+1)
  2639  0220  30A9               	movlw	169
  2640  0221  00C6               	movwf	??_isr^(0+128)
  2641  0222                     u429_27:
  2642  0222  0BC6               	decfsz	??_isr^(0+128),f
  2643  0223  2A22               	goto	u429_27
  2644  0224  0BC7               	decfsz	(??_isr^(0+128)+1),f
  2645  0225  2A22               	goto	u429_27
  2646  0226  0BC8               	decfsz	(??_isr^(0+128)+2),f
  2647  0227  2A22               	goto	u429_27
  2648  0228                     i1l2710:
  2649                           
  2650                           ;Maestro4EEPROMEUSART.c: 175:                     CONT3++;
  2651  0228  3001               	movlw	1
  2652  0229  1683               	bsf	3,5	;RP0=1, select bank1
  2653  022A  1303               	bcf	3,6	;RP1=0, select bank1
  2654  022B  00C6               	movwf	??_isr^(0+128)
  2655  022C  0846               	movf	??_isr^(0+128),w
  2656  022D  07A8               	addwf	_CONT3^(0+128),f
  2657  022E                     i1l2712:
  2658                           
  2659                           ;Maestro4EEPROMEUSART.c: 177:                 POT_3 = ADRESH;
  2660  022E  1283               	bcf	3,5	;RP0=0, select bank0
  2661  022F  1303               	bcf	3,6	;RP1=0, select bank0
  2662  0230  081E               	movf	30,w	;volatile
  2663  0231  1683               	bsf	3,5	;RP0=1, select bank1
  2664  0232  1303               	bcf	3,6	;RP1=0, select bank1
  2665  0233  00C6               	movwf	??_isr^(0+128)
  2666  0234  0846               	movf	??_isr^(0+128),w
  2667  0235  00B5               	movwf	_POT_3^(0+128)
  2668                           
  2669                           ;Maestro4EEPROMEUSART.c: 178:             }
  2670  0236  2A7D               	goto	i1l2726
  2671  0237                     i1l2714:
  2672  0237  0338               	decf	_MODO^(0+128),w
  2673  0238  1D03               	btfss	3,2
  2674  0239  2A3B               	goto	u371_21
  2675  023A  2A3C               	goto	u371_20
  2676  023B                     u371_21:
  2677  023B  2A56               	goto	i1l2722
  2678  023C                     u371_20:
  2679  023C                     i1l2716:
  2680                           
  2681                           ;Maestro4EEPROMEUSART.c: 180:                 if(BANDERA_R == 1){
  2682  023C  032B               	decf	_BANDERA_R^(0+128),w
  2683  023D  1D03               	btfss	3,2
  2684  023E  2A40               	goto	u372_21
  2685  023F  2A41               	goto	u372_20
  2686  0240                     u372_21:
  2687  0240  2A7D               	goto	i1l2726
  2688  0241                     u372_20:
  2689  0241                     i1l2718:
  2690                           
  2691                           ;Maestro4EEPROMEUSART.c: 181:                     _delay((unsigned long)((1000)*(1000000
      +                          /4000.0)));
  2692  0241  3002               	movlw	2
  2693  0242  1683               	bsf	3,5	;RP0=1, select bank1
  2694  0243  1303               	bcf	3,6	;RP1=0, select bank1
  2695  0244  00C8               	movwf	(??_isr^(0+128)+2)
  2696  0245  3045               	movlw	69
  2697  0246  00C7               	movwf	(??_isr^(0+128)+1)
  2698  0247  30A9               	movlw	169
  2699  0248  00C6               	movwf	??_isr^(0+128)
  2700  0249                     u430_27:
  2701  0249  0BC6               	decfsz	??_isr^(0+128),f
  2702  024A  2A49               	goto	u430_27
  2703  024B  0BC7               	decfsz	(??_isr^(0+128)+1),f
  2704  024C  2A49               	goto	u430_27
  2705  024D  0BC8               	decfsz	(??_isr^(0+128)+2),f
  2706  024E  2A49               	goto	u430_27
  2707  024F                     i1l2720:
  2708                           
  2709                           ;Maestro4EEPROMEUSART.c: 182:                     CONT++;
  2710  024F  3001               	movlw	1
  2711  0250  1683               	bsf	3,5	;RP0=1, select bank1
  2712  0251  1303               	bcf	3,6	;RP1=0, select bank1
  2713  0252  00C6               	movwf	??_isr^(0+128)
  2714  0253  0846               	movf	??_isr^(0+128),w
  2715  0254  07A9               	addwf	_CONT^(0+128),f
  2716  0255  2A7D               	goto	i1l2726
  2717  0256                     i1l2722:
  2718  0256  3002               	movlw	2
  2719  0257  0638               	xorwf	_MODO^(0+128),w
  2720  0258  1D03               	btfss	3,2
  2721  0259  2A5B               	goto	u373_21
  2722  025A  2A5C               	goto	u373_20
  2723  025B                     u373_21:
  2724  025B  2A7D               	goto	i1l2726
  2725  025C                     u373_20:
  2726  025C                     i1l2724:
  2727                           
  2728                           ;Maestro4EEPROMEUSART.c: 186:                 POT_3 = map(POT_3_E, 5, 127, 0, 255);
  2729  025C  0831               	movf	_POT_3_E^(0+128),w
  2730  025D  00C6               	movwf	??_isr^(0+128)
  2731  025E  01C7               	clrf	(??_isr^(0+128)+1)
  2732  025F  0846               	movf	??_isr^(0+128),w
  2733  0260  00BE               	movwf	map@x^(0+128)
  2734  0261  0847               	movf	(??_isr+1)^(0+128),w
  2735  0262  00BF               	movwf	(map@x+1)^(0+128)
  2736  0263  3005               	movlw	5
  2737  0264  00C8               	movwf	(??_isr+2)^(0+128)
  2738  0265  0848               	movf	(??_isr+2)^(0+128),w
  2739  0266  00C0               	movwf	map@x0^(0+128)
  2740  0267  307F               	movlw	127
  2741  0268  00C9               	movwf	(??_isr+3)^(0+128)
  2742  0269  0849               	movf	(??_isr+3)^(0+128),w
  2743  026A  00C1               	movwf	map@x1^(0+128)
  2744  026B  3000               	movlw	0
  2745  026C  00C2               	movwf	map@y0^(0+128)
  2746  026D  00C3               	movwf	(map@y0+1)^(0+128)
  2747  026E  30FF               	movlw	255
  2748  026F  00C4               	movwf	map@y1^(0+128)
  2749  0270  3000               	movlw	0
  2750  0271  00C5               	movwf	(map@y1^(0+128)+1)
  2751  0272  120A  158A  210C  120A  118A  	fcall	_map
  2752  0277  1683               	bsf	3,5	;RP0=1, select bank1
  2753  0278  1303               	bcf	3,6	;RP1=0, select bank1
  2754  0279  083E               	movf	?_map^(0+128),w
  2755  027A  00CA               	movwf	(??_isr+4)^(0+128)
  2756  027B  084A               	movf	(??_isr+4)^(0+128),w
  2757  027C  00B5               	movwf	_POT_3^(0+128)
  2758  027D                     i1l2726:
  2759                           
  2760                           ;Maestro4EEPROMEUSART.c: 189:             PORTDbits.RD0 = 0;
  2761  027D  1283               	bcf	3,5	;RP0=0, select bank0
  2762  027E  1303               	bcf	3,6	;RP1=0, select bank0
  2763  027F  1008               	bcf	8,0	;volatile
  2764  0280                     i1l2728:
  2765                           
  2766                           ;Maestro4EEPROMEUSART.c: 190:             SSPBUF = POT_3;
  2767  0280  1683               	bsf	3,5	;RP0=1, select bank1
  2768  0281  1303               	bcf	3,6	;RP1=0, select bank1
  2769  0282  0835               	movf	_POT_3^(0+128),w
  2770  0283  1283               	bcf	3,5	;RP0=0, select bank0
  2771  0284  1303               	bcf	3,6	;RP1=0, select bank0
  2772  0285  0093               	movwf	19	;volatile
  2773  0286                     i1l200:	
  2774                           ;Maestro4EEPROMEUSART.c: 191:             while(!SSPSTATbits.BF){}
  2775                           
  2776  0286  1683               	bsf	3,5	;RP0=1, select bank1
  2777  0287  1303               	bcf	3,6	;RP1=0, select bank1
  2778  0288  1C14               	btfss	20,0	;volatile
  2779  0289  2A8B               	goto	u374_21
  2780  028A  2A8C               	goto	u374_20
  2781  028B                     u374_21:
  2782  028B  2A86               	goto	i1l200
  2783  028C                     u374_20:
  2784  028C                     i1l2730:
  2785                           
  2786                           ;Maestro4EEPROMEUSART.c: 192:             _delay((unsigned long)((50)*(1000000/4000.0)))
      +                          ;
  2787  028C  3011               	movlw	17
  2788  028D  1683               	bsf	3,5	;RP0=1, select bank1
  2789  028E  1303               	bcf	3,6	;RP1=0, select bank1
  2790  028F  00C7               	movwf	(??_isr^(0+128)+1)
  2791  0290  3039               	movlw	57
  2792  0291  00C6               	movwf	??_isr^(0+128)
  2793  0292                     u431_27:
  2794  0292  0BC6               	decfsz	??_isr^(0+128),f
  2795  0293  2A92               	goto	u431_27
  2796  0294  0BC7               	decfsz	(??_isr^(0+128)+1),f
  2797  0295  2A92               	goto	u431_27
  2798  0296  2A97               	nop2
  2799                           
  2800                           ;Maestro4EEPROMEUSART.c: 194:         }
  2801  0297  2B22               	goto	i1l2762
  2802  0298                     i1l2732:
  2803  0298  1283               	bcf	3,5	;RP0=0, select bank0
  2804  0299  1303               	bcf	3,6	;RP1=0, select bank0
  2805  029A  0C1F               	rrf	31,w	;volatile
  2806  029B  1683               	bsf	3,5	;RP0=1, select bank1
  2807  029C  1303               	bcf	3,6	;RP1=0, select bank1
  2808  029D  00C6               	movwf	??_isr^(0+128)
  2809  029E  0C46               	rrf	??_isr^(0+128),w
  2810  029F  390F               	andlw	15
  2811  02A0  3A03               	xorlw	3
  2812  02A1  1D03               	skipz
  2813  02A2  2AA4               	goto	u375_21
  2814  02A3  2AA5               	goto	u375_20
  2815  02A4                     u375_21:
  2816  02A4  2B22               	goto	i1l191
  2817  02A5                     u375_20:
  2818  02A5                     i1l2734:
  2819                           
  2820                           ;Maestro4EEPROMEUSART.c: 196:             if(MODO == 0){
  2821  02A5  0838               	movf	_MODO^(0+128),w
  2822  02A6  1D03               	btfss	3,2
  2823  02A7  2AA9               	goto	u376_21
  2824  02A8  2AAA               	goto	u376_20
  2825  02A9                     u376_21:
  2826  02A9  2ACC               	goto	i1l2744
  2827  02AA                     u376_20:
  2828  02AA                     i1l2736:
  2829                           
  2830                           ;Maestro4EEPROMEUSART.c: 197:                 if(BANDERA_MODO2A0 == 1){
  2831  02AA  0326               	decf	_BANDERA_MODO2A0^(0+128),w
  2832  02AB  1D03               	btfss	3,2
  2833  02AC  2AAE               	goto	u377_21
  2834  02AD  2AAF               	goto	u377_20
  2835  02AE                     u377_21:
  2836  02AE  2AC3               	goto	i1l2742
  2837  02AF                     u377_20:
  2838  02AF                     i1l2738:
  2839                           
  2840                           ;Maestro4EEPROMEUSART.c: 198:                     _delay((unsigned long)((1000)*(1000000
      +                          /4000.0)));
  2841  02AF  3002               	movlw	2
  2842  02B0  1683               	bsf	3,5	;RP0=1, select bank1
  2843  02B1  1303               	bcf	3,6	;RP1=0, select bank1
  2844  02B2  00C8               	movwf	(??_isr^(0+128)+2)
  2845  02B3  3045               	movlw	69
  2846  02B4  00C7               	movwf	(??_isr^(0+128)+1)
  2847  02B5  30A9               	movlw	169
  2848  02B6  00C6               	movwf	??_isr^(0+128)
  2849  02B7                     u432_27:
  2850  02B7  0BC6               	decfsz	??_isr^(0+128),f
  2851  02B8  2AB7               	goto	u432_27
  2852  02B9  0BC7               	decfsz	(??_isr^(0+128)+1),f
  2853  02BA  2AB7               	goto	u432_27
  2854  02BB  0BC8               	decfsz	(??_isr^(0+128)+2),f
  2855  02BC  2AB7               	goto	u432_27
  2856  02BD                     i1l2740:
  2857                           
  2858                           ;Maestro4EEPROMEUSART.c: 199:                     CONT3++;
  2859  02BD  3001               	movlw	1
  2860  02BE  1683               	bsf	3,5	;RP0=1, select bank1
  2861  02BF  1303               	bcf	3,6	;RP1=0, select bank1
  2862  02C0  00C6               	movwf	??_isr^(0+128)
  2863  02C1  0846               	movf	??_isr^(0+128),w
  2864  02C2  07A8               	addwf	_CONT3^(0+128),f
  2865  02C3                     i1l2742:
  2866                           
  2867                           ;Maestro4EEPROMEUSART.c: 201:                 POT_4 = ADRESH;
  2868  02C3  1283               	bcf	3,5	;RP0=0, select bank0
  2869  02C4  1303               	bcf	3,6	;RP1=0, select bank0
  2870  02C5  081E               	movf	30,w	;volatile
  2871  02C6  1683               	bsf	3,5	;RP0=1, select bank1
  2872  02C7  1303               	bcf	3,6	;RP1=0, select bank1
  2873  02C8  00C6               	movwf	??_isr^(0+128)
  2874  02C9  0846               	movf	??_isr^(0+128),w
  2875  02CA  00B4               	movwf	_POT_4^(0+128)
  2876                           
  2877                           ;Maestro4EEPROMEUSART.c: 202:             }
  2878  02CB  2B12               	goto	i1l2756
  2879  02CC                     i1l2744:
  2880  02CC  0338               	decf	_MODO^(0+128),w
  2881  02CD  1D03               	btfss	3,2
  2882  02CE  2AD0               	goto	u378_21
  2883  02CF  2AD1               	goto	u378_20
  2884  02D0                     u378_21:
  2885  02D0  2AEB               	goto	i1l2752
  2886  02D1                     u378_20:
  2887  02D1                     i1l2746:
  2888                           
  2889                           ;Maestro4EEPROMEUSART.c: 204:                 if(BANDERA_R == 1){
  2890  02D1  032B               	decf	_BANDERA_R^(0+128),w
  2891  02D2  1D03               	btfss	3,2
  2892  02D3  2AD5               	goto	u379_21
  2893  02D4  2AD6               	goto	u379_20
  2894  02D5                     u379_21:
  2895  02D5  2B12               	goto	i1l2756
  2896  02D6                     u379_20:
  2897  02D6                     i1l2748:
  2898                           
  2899                           ;Maestro4EEPROMEUSART.c: 205:                     _delay((unsigned long)((1000)*(1000000
      +                          /4000.0)));
  2900  02D6  3002               	movlw	2
  2901  02D7  1683               	bsf	3,5	;RP0=1, select bank1
  2902  02D8  1303               	bcf	3,6	;RP1=0, select bank1
  2903  02D9  00C8               	movwf	(??_isr^(0+128)+2)
  2904  02DA  3045               	movlw	69
  2905  02DB  00C7               	movwf	(??_isr^(0+128)+1)
  2906  02DC  30A9               	movlw	169
  2907  02DD  00C6               	movwf	??_isr^(0+128)
  2908  02DE                     u433_27:
  2909  02DE  0BC6               	decfsz	??_isr^(0+128),f
  2910  02DF  2ADE               	goto	u433_27
  2911  02E0  0BC7               	decfsz	(??_isr^(0+128)+1),f
  2912  02E1  2ADE               	goto	u433_27
  2913  02E2  0BC8               	decfsz	(??_isr^(0+128)+2),f
  2914  02E3  2ADE               	goto	u433_27
  2915  02E4                     i1l2750:
  2916                           
  2917                           ;Maestro4EEPROMEUSART.c: 206:                     CONT++;
  2918  02E4  3001               	movlw	1
  2919  02E5  1683               	bsf	3,5	;RP0=1, select bank1
  2920  02E6  1303               	bcf	3,6	;RP1=0, select bank1
  2921  02E7  00C6               	movwf	??_isr^(0+128)
  2922  02E8  0846               	movf	??_isr^(0+128),w
  2923  02E9  07A9               	addwf	_CONT^(0+128),f
  2924  02EA  2B12               	goto	i1l2756
  2925  02EB                     i1l2752:
  2926  02EB  3002               	movlw	2
  2927  02EC  0638               	xorwf	_MODO^(0+128),w
  2928  02ED  1D03               	btfss	3,2
  2929  02EE  2AF0               	goto	u380_21
  2930  02EF  2AF1               	goto	u380_20
  2931  02F0                     u380_21:
  2932  02F0  2B12               	goto	i1l2756
  2933  02F1                     u380_20:
  2934  02F1                     i1l2754:
  2935                           
  2936                           ;Maestro4EEPROMEUSART.c: 210:                 POT_4 = map(POT_4_E, 5, 127, 0, 255);
  2937  02F1  0830               	movf	_POT_4_E^(0+128),w
  2938  02F2  00C6               	movwf	??_isr^(0+128)
  2939  02F3  01C7               	clrf	(??_isr^(0+128)+1)
  2940  02F4  0846               	movf	??_isr^(0+128),w
  2941  02F5  00BE               	movwf	map@x^(0+128)
  2942  02F6  0847               	movf	(??_isr+1)^(0+128),w
  2943  02F7  00BF               	movwf	(map@x+1)^(0+128)
  2944  02F8  3005               	movlw	5
  2945  02F9  00C8               	movwf	(??_isr+2)^(0+128)
  2946  02FA  0848               	movf	(??_isr+2)^(0+128),w
  2947  02FB  00C0               	movwf	map@x0^(0+128)
  2948  02FC  307F               	movlw	127
  2949  02FD  00C9               	movwf	(??_isr+3)^(0+128)
  2950  02FE  0849               	movf	(??_isr+3)^(0+128),w
  2951  02FF  00C1               	movwf	map@x1^(0+128)
  2952  0300  3000               	movlw	0
  2953  0301  00C2               	movwf	map@y0^(0+128)
  2954  0302  00C3               	movwf	(map@y0+1)^(0+128)
  2955  0303  30FF               	movlw	255
  2956  0304  00C4               	movwf	map@y1^(0+128)
  2957  0305  3000               	movlw	0
  2958  0306  00C5               	movwf	(map@y1^(0+128)+1)
  2959  0307  120A  158A  210C  120A  118A  	fcall	_map
  2960  030C  1683               	bsf	3,5	;RP0=1, select bank1
  2961  030D  1303               	bcf	3,6	;RP1=0, select bank1
  2962  030E  083E               	movf	?_map^(0+128),w
  2963  030F  00CA               	movwf	(??_isr+4)^(0+128)
  2964  0310  084A               	movf	(??_isr+4)^(0+128),w
  2965  0311  00B4               	movwf	_POT_4^(0+128)
  2966  0312                     i1l2756:
  2967                           
  2968                           ;Maestro4EEPROMEUSART.c: 213:             PORTDbits.RD0 = 1;
  2969  0312  1283               	bcf	3,5	;RP0=0, select bank0
  2970  0313  1303               	bcf	3,6	;RP1=0, select bank0
  2971  0314  1408               	bsf	8,0	;volatile
  2972  0315                     i1l2758:
  2973                           
  2974                           ;Maestro4EEPROMEUSART.c: 214:             SSPBUF = POT_4;
  2975  0315  1683               	bsf	3,5	;RP0=1, select bank1
  2976  0316  1303               	bcf	3,6	;RP1=0, select bank1
  2977  0317  0834               	movf	_POT_4^(0+128),w
  2978  0318  1283               	bcf	3,5	;RP0=0, select bank0
  2979  0319  1303               	bcf	3,6	;RP1=0, select bank0
  2980  031A  0093               	movwf	19	;volatile
  2981  031B                     i1l212:	
  2982                           ;Maestro4EEPROMEUSART.c: 215:             while(!SSPSTATbits.BF){}
  2983                           
  2984  031B  1683               	bsf	3,5	;RP0=1, select bank1
  2985  031C  1303               	bcf	3,6	;RP1=0, select bank1
  2986  031D  1C14               	btfss	20,0	;volatile
  2987  031E  2B20               	goto	u381_21
  2988  031F  2B21               	goto	u381_20
  2989  0320                     u381_21:
  2990  0320  2B1B               	goto	i1l212
  2991  0321                     u381_20:
  2992  0321  2A8C               	goto	i1l2730
  2993  0322                     i1l191:
  2994  0322                     i1l2762:
  2995                           
  2996                           ;Maestro4EEPROMEUSART.c: 218:         PIR1bits.ADIF = 0;
  2997  0322  1283               	bcf	3,5	;RP0=0, select bank0
  2998  0323  1303               	bcf	3,6	;RP1=0, select bank0
  2999  0324  130C               	bcf	12,6	;volatile
  3000  0325                     i1l2764:
  3001                           
  3002                           ;Maestro4EEPROMEUSART.c: 220:     if(PIR1bits.RCIF){
  3003  0325  1E8C               	btfss	12,5	;volatile
  3004  0326  2B28               	goto	u382_21
  3005  0327  2B29               	goto	u382_20
  3006  0328                     u382_21:
  3007  0328  2B92               	goto	i1l233
  3008  0329                     u382_20:
  3009  0329                     i1l2766:
  3010                           
  3011                           ;Maestro4EEPROMEUSART.c: 221:         if(MODO == 2){
  3012  0329  3002               	movlw	2
  3013  032A  1683               	bsf	3,5	;RP0=1, select bank1
  3014  032B  1303               	bcf	3,6	;RP1=0, select bank1
  3015  032C  0638               	xorwf	_MODO^(0+128),w
  3016  032D  1D03               	btfss	3,2
  3017  032E  2B30               	goto	u383_21
  3018  032F  2B31               	goto	u383_20
  3019  0330                     u383_21:
  3020  0330  2B92               	goto	i1l233
  3021  0331                     u383_20:
  3022  0331                     i1l2768:
  3023                           
  3024                           ;Maestro4EEPROMEUSART.c: 222:             VALOR_USART = RCREG;
  3025  0331  1283               	bcf	3,5	;RP0=0, select bank0
  3026  0332  1303               	bcf	3,6	;RP1=0, select bank0
  3027  0333  081A               	movf	26,w	;volatile
  3028  0334  1683               	bsf	3,5	;RP0=1, select bank1
  3029  0335  1303               	bcf	3,6	;RP1=0, select bank1
  3030  0336  00C6               	movwf	??_isr^(0+128)
  3031  0337  0846               	movf	??_isr^(0+128),w
  3032  0338  00A7               	movwf	_VALOR_USART^(0+128)
  3033  0339                     i1l2770:
  3034                           
  3035                           ;Maestro4EEPROMEUSART.c: 223:             if(VALOR_USART == 0){
  3036  0339  0827               	movf	_VALOR_USART^(0+128),w
  3037  033A  1D03               	btfss	3,2
  3038  033B  2B3D               	goto	u384_21
  3039  033C  2B3E               	goto	u384_20
  3040  033D                     u384_21:
  3041  033D  2B41               	goto	i1l2774
  3042  033E                     u384_20:
  3043  033E                     i1l2772:
  3044                           
  3045                           ;Maestro4EEPROMEUSART.c: 224:                 SELECCION_SERVO = 1;
  3046  033E  01AA               	clrf	_SELECCION_SERVO^(0+128)
  3047  033F  0AAA               	incf	_SELECCION_SERVO^(0+128),f
  3048                           
  3049                           ;Maestro4EEPROMEUSART.c: 225:             }
  3050  0340  2B92               	goto	i1l233
  3051  0341                     i1l2774:
  3052  0341  0327               	decf	_VALOR_USART^(0+128),w
  3053  0342  1D03               	btfss	3,2
  3054  0343  2B45               	goto	u385_21
  3055  0344  2B46               	goto	u385_20
  3056  0345                     u385_21:
  3057  0345  2B4B               	goto	i1l2778
  3058  0346                     u385_20:
  3059  0346                     i1l2776:
  3060                           
  3061                           ;Maestro4EEPROMEUSART.c: 227:                 SELECCION_SERVO = 2;
  3062  0346  3002               	movlw	2
  3063  0347  00C6               	movwf	??_isr^(0+128)
  3064  0348  0846               	movf	??_isr^(0+128),w
  3065  0349  00AA               	movwf	_SELECCION_SERVO^(0+128)
  3066                           
  3067                           ;Maestro4EEPROMEUSART.c: 228:             }
  3068  034A  2B92               	goto	i1l233
  3069  034B                     i1l2778:
  3070  034B  3002               	movlw	2
  3071  034C  0627               	xorwf	_VALOR_USART^(0+128),w
  3072  034D  1D03               	btfss	3,2
  3073  034E  2B50               	goto	u386_21
  3074  034F  2B51               	goto	u386_20
  3075  0350                     u386_21:
  3076  0350  2B56               	goto	i1l2782
  3077  0351                     u386_20:
  3078  0351                     i1l2780:
  3079                           
  3080                           ;Maestro4EEPROMEUSART.c: 230:                 SELECCION_SERVO = 3;
  3081  0351  3003               	movlw	3
  3082  0352  00C6               	movwf	??_isr^(0+128)
  3083  0353  0846               	movf	??_isr^(0+128),w
  3084  0354  00AA               	movwf	_SELECCION_SERVO^(0+128)
  3085                           
  3086                           ;Maestro4EEPROMEUSART.c: 231:             }
  3087  0355  2B92               	goto	i1l233
  3088  0356                     i1l2782:
  3089  0356  3003               	movlw	3
  3090  0357  0627               	xorwf	_VALOR_USART^(0+128),w
  3091  0358  1D03               	btfss	3,2
  3092  0359  2B5B               	goto	u387_21
  3093  035A  2B5C               	goto	u387_20
  3094  035B                     u387_21:
  3095  035B  2B61               	goto	i1l2786
  3096  035C                     u387_20:
  3097  035C                     i1l2784:
  3098                           
  3099                           ;Maestro4EEPROMEUSART.c: 233:                 SELECCION_SERVO = 4;
  3100  035C  3004               	movlw	4
  3101  035D  00C6               	movwf	??_isr^(0+128)
  3102  035E  0846               	movf	??_isr^(0+128),w
  3103  035F  00AA               	movwf	_SELECCION_SERVO^(0+128)
  3104                           
  3105                           ;Maestro4EEPROMEUSART.c: 234:             }
  3106  0360  2B92               	goto	i1l233
  3107  0361                     i1l2786:
  3108  0361  3004               	movlw	4
  3109  0362  0227               	subwf	_VALOR_USART^(0+128),w
  3110  0363  1C03               	skipc
  3111  0364  2B66               	goto	u388_21
  3112  0365  2B67               	goto	u388_20
  3113  0366                     u388_21:
  3114  0366  2B92               	goto	i1l233
  3115  0367                     u388_20:
  3116  0367                     i1l2788:
  3117                           
  3118                           ;Maestro4EEPROMEUSART.c: 236:                 if(SELECCION_SERVO == 1){
  3119  0367  032A               	decf	_SELECCION_SERVO^(0+128),w
  3120  0368  1D03               	btfss	3,2
  3121  0369  2B6B               	goto	u389_21
  3122  036A  2B6C               	goto	u389_20
  3123  036B                     u389_21:
  3124  036B  2B71               	goto	i1l2792
  3125  036C                     u389_20:
  3126  036C                     i1l2790:
  3127                           
  3128                           ;Maestro4EEPROMEUSART.c: 237:                      POT_1_E = VALOR_USART;
  3129  036C  0827               	movf	_VALOR_USART^(0+128),w
  3130  036D  00C6               	movwf	??_isr^(0+128)
  3131  036E  0846               	movf	??_isr^(0+128),w
  3132  036F  00B3               	movwf	_POT_1_E^(0+128)
  3133                           
  3134                           ;Maestro4EEPROMEUSART.c: 238:                 }
  3135  0370  2B92               	goto	i1l233
  3136  0371                     i1l2792:
  3137  0371  3002               	movlw	2
  3138  0372  062A               	xorwf	_SELECCION_SERVO^(0+128),w
  3139  0373  1D03               	btfss	3,2
  3140  0374  2B76               	goto	u390_21
  3141  0375  2B77               	goto	u390_20
  3142  0376                     u390_21:
  3143  0376  2B7C               	goto	i1l2796
  3144  0377                     u390_20:
  3145  0377                     i1l2794:
  3146                           
  3147                           ;Maestro4EEPROMEUSART.c: 240:                      POT_2_E = VALOR_USART;
  3148  0377  0827               	movf	_VALOR_USART^(0+128),w
  3149  0378  00C6               	movwf	??_isr^(0+128)
  3150  0379  0846               	movf	??_isr^(0+128),w
  3151  037A  00B2               	movwf	_POT_2_E^(0+128)
  3152                           
  3153                           ;Maestro4EEPROMEUSART.c: 241:                 }
  3154  037B  2B92               	goto	i1l233
  3155  037C                     i1l2796:
  3156  037C  3003               	movlw	3
  3157  037D  062A               	xorwf	_SELECCION_SERVO^(0+128),w
  3158  037E  1D03               	btfss	3,2
  3159  037F  2B81               	goto	u391_21
  3160  0380  2B82               	goto	u391_20
  3161  0381                     u391_21:
  3162  0381  2B87               	goto	i1l2800
  3163  0382                     u391_20:
  3164  0382                     i1l2798:
  3165                           
  3166                           ;Maestro4EEPROMEUSART.c: 243:                      POT_3_E = VALOR_USART;
  3167  0382  0827               	movf	_VALOR_USART^(0+128),w
  3168  0383  00C6               	movwf	??_isr^(0+128)
  3169  0384  0846               	movf	??_isr^(0+128),w
  3170  0385  00B1               	movwf	_POT_3_E^(0+128)
  3171                           
  3172                           ;Maestro4EEPROMEUSART.c: 244:                 }
  3173  0386  2B92               	goto	i1l233
  3174  0387                     i1l2800:
  3175  0387  3004               	movlw	4
  3176  0388  062A               	xorwf	_SELECCION_SERVO^(0+128),w
  3177  0389  1D03               	btfss	3,2
  3178  038A  2B8C               	goto	u392_21
  3179  038B  2B8D               	goto	u392_20
  3180  038C                     u392_21:
  3181  038C  2B92               	goto	i1l227
  3182  038D                     u392_20:
  3183  038D                     i1l2802:
  3184                           
  3185                           ;Maestro4EEPROMEUSART.c: 246:                      POT_4_E = VALOR_USART;
  3186  038D  0827               	movf	_VALOR_USART^(0+128),w
  3187  038E  00C6               	movwf	??_isr^(0+128)
  3188  038F  0846               	movf	??_isr^(0+128),w
  3189  0390  00B0               	movwf	_POT_4_E^(0+128)
  3190  0391  2B92               	goto	i1l233
  3191  0392                     i1l227:
  3192  0392                     i1l233:
  3193  0392  1683               	bsf	3,5	;RP0=1, select bank1
  3194  0393  1303               	bcf	3,6	;RP1=0, select bank1
  3195  0394  084D               	movf	(??_isr+7)^(0+128),w
  3196  0395  00FF               	movwf	btemp+1
  3197  0396  084C               	movf	(??_isr+6)^(0+128),w
  3198  0397  008A               	movwf	10
  3199  0398  0E4B               	swapf	(??_isr+5)^(0+128),w
  3200  0399  0083               	movwf	3
  3201  039A  0EFE               	swapf	btemp,f
  3202  039B  0E7E               	swapf	btemp,w
  3203  039C  0009               	retfie
  3204  039D                     __end_of_isr:
  3205                           
  3206                           	psect	intentry
  3207  0004                     __pintentry:	
  3208                           ;incstack = 0
  3209                           ; Regs used in _isr: [wreg+status,2+status,0+btemp+1+pclath+cstack]
  3210                           
  3211  0004                     interrupt_function:
  3212  007E                     saved_w	set	btemp
  3213  0004  00FE               	movwf	btemp
  3214  0005  0E03               	swapf	3,w
  3215  0006  1683               	bsf	3,5	;RP0=1, select bank1
  3216  0007  1303               	bcf	3,6	;RP1=0, select bank1
  3217  0008  00CB               	movwf	(??_isr+5)^(0+128)
  3218  0009  080A               	movf	10,w
  3219  000A  00CC               	movwf	(??_isr+6)^(0+128)
  3220  000B  087F               	movf	btemp+1,w
  3221  000C  00CD               	movwf	(??_isr+7)^(0+128)
  3222  000D  120A  118A  2824   	ljmp	_isr
  3223                           
  3224                           	psect	text5
  3225  090C                     __ptext5:	
  3226 ;; *************** function _map *****************
  3227 ;; Defined at:
  3228 ;;		line 474 in file "Maestro4EEPROMEUSART.c"
  3229 ;; Parameters:    Size  Location     Type
  3230 ;;  x               2    5[BANK1 ] short 
  3231 ;;  x0              1    7[BANK1 ] unsigned char 
  3232 ;;  x1              1    8[BANK1 ] unsigned char 
  3233 ;;  y0              2    9[BANK1 ] unsigned short 
  3234 ;;  y1              2   11[BANK1 ] unsigned short 
  3235 ;; Auto vars:     Size  Location     Type
  3236 ;;		None
  3237 ;; Return value:  Size  Location     Type
  3238 ;;                  2    5[BANK1 ] unsigned short 
  3239 ;; Registers used:
  3240 ;;		wreg, status,2, status,0, btemp+1, pclath, cstack
  3241 ;; Tracked objects:
  3242 ;;		On entry : 0/0
  3243 ;;		On exit  : 0/0
  3244 ;;		Unchanged: 0/0
  3245 ;; Data sizes:     COMMON   BANK0   BANK1   BANK3   BANK2
  3246 ;;      Params:         0       0       8       0       0
  3247 ;;      Locals:         0       0       0       0       0
  3248 ;;      Temps:          0       0       0       0       0
  3249 ;;      Totals:         0       0       8       0       0
  3250 ;;Total ram usage:        8 bytes
  3251 ;; Hardware stack levels used: 1
  3252 ;; Hardware stack levels required when called: 2
  3253 ;; This function calls:
  3254 ;;		___fladd
  3255 ;;		___fldiv
  3256 ;;		___flmul
  3257 ;;		___fltol
  3258 ;;		___xxtofl
  3259 ;; This function is called by:
  3260 ;;		_isr
  3261 ;; This function uses a non-reentrant model
  3262 ;;
  3263                           
  3264  090C                     _map:	
  3265                           ;psect for function _map
  3266                           
  3267  090C                     i1l2468:	
  3268                           ;incstack = 0
  3269                           ; Regs used in _map: [wreg+status,2+status,0+btemp+1+pclath+cstack]
  3270                           
  3271                           
  3272                           ;Maestro4EEPROMEUSART.c: 474: unsigned short map(short x, uint8_t x0, uint8_t x1,;Maestr
      +                          o4EEPROMEUSART.c: 475:             unsigned short y0, unsigned short y1){;Maestro4EEPROM
      +                          EUSART.c: 476:     return (unsigned short)(y0+((float)(y1-y0)/(x1-x0))*(x-x0));
  3273  090C  1683               	bsf	3,5	;RP0=1, select bank1
  3274  090D  1303               	bcf	3,6	;RP1=0, select bank1
  3275  090E  0842               	movf	map@y0^(0+128),w
  3276  090F  00F0               	movwf	___xxtofl@val
  3277  0910  0843               	movf	(map@y0+1)^(0+128),w
  3278  0911  00F1               	movwf	___xxtofl@val+1
  3279  0912  01F2               	clrf	___xxtofl@val+2
  3280  0913  01F3               	clrf	___xxtofl@val+3
  3281  0914  3000               	movlw	0
  3282  0915  120A  118A  26FE  120A  158A  	fcall	___xxtofl
  3283  091A  0873               	movf	?___xxtofl+3,w
  3284  091B  1283               	bcf	3,5	;RP0=0, select bank0
  3285  091C  1303               	bcf	3,6	;RP1=0, select bank0
  3286  091D  00DB               	movwf	___fladd@a+3
  3287  091E  0872               	movf	?___xxtofl+2,w
  3288  091F  00DA               	movwf	___fladd@a+2
  3289  0920  0871               	movf	?___xxtofl+1,w
  3290  0921  00D9               	movwf	___fladd@a+1
  3291  0922  0870               	movf	?___xxtofl,w
  3292  0923  00D8               	movwf	___fladd@a
  3293  0924  1683               	bsf	3,5	;RP0=1, select bank1
  3294  0925  1303               	bcf	3,6	;RP1=0, select bank1
  3295  0926  0842               	movf	map@y0^(0+128),w
  3296  0927  0244               	subwf	map@y1^(0+128),w
  3297  0928  00F0               	movwf	___xxtofl@val
  3298  0929  0843               	movf	(map@y0+1)^(0+128),w
  3299  092A  1C03               	skipc
  3300  092B  0A43               	incf	(map@y0+1)^(0+128),w
  3301  092C  0245               	subwf	(map@y1+1)^(0+128),w
  3302  092D  00F1               	movwf	___xxtofl@val+1
  3303  092E  01F2               	clrf	___xxtofl@val+2
  3304  092F  01F3               	clrf	___xxtofl@val+3
  3305  0930  3000               	movlw	0
  3306  0931  120A  118A  26FE  120A  158A  	fcall	___xxtofl
  3307  0936  0873               	movf	?___xxtofl+3,w
  3308  0937  1283               	bcf	3,5	;RP0=0, select bank0
  3309  0938  1303               	bcf	3,6	;RP1=0, select bank0
  3310  0939  00A7               	movwf	___fldiv@b+3
  3311  093A  0872               	movf	?___xxtofl+2,w
  3312  093B  00A6               	movwf	___fldiv@b+2
  3313  093C  0871               	movf	?___xxtofl+1,w
  3314  093D  00A5               	movwf	___fldiv@b+1
  3315  093E  0870               	movf	?___xxtofl,w
  3316  093F  00A4               	movwf	___fldiv@b
  3317  0940  1683               	bsf	3,5	;RP0=1, select bank1
  3318  0941  1303               	bcf	3,6	;RP1=0, select bank1
  3319  0942  0840               	movf	map@x0^(0+128),w
  3320  0943  0241               	subwf	map@x1^(0+128),w
  3321  0944  00F0               	movwf	___xxtofl@val
  3322  0945  01F1               	clrf	___xxtofl@val+1
  3323  0946  1C03               	skipc
  3324  0947  03F1               	decf	___xxtofl@val+1,f
  3325  0948  01F2               	clrf	___xxtofl@val+2
  3326  0949  1BF1               	btfsc	___xxtofl@val+1,7
  3327  094A  03F2               	decf	___xxtofl@val+2,f
  3328  094B  0872               	movf	___xxtofl@val+2,w
  3329  094C  00F3               	movwf	___xxtofl@val+3
  3330  094D  3001               	movlw	1
  3331  094E  120A  118A  26FE  120A  158A  	fcall	___xxtofl
  3332  0953  0873               	movf	?___xxtofl+3,w
  3333  0954  1283               	bcf	3,5	;RP0=0, select bank0
  3334  0955  1303               	bcf	3,6	;RP1=0, select bank0
  3335  0956  00A3               	movwf	___fldiv@a+3
  3336  0957  0872               	movf	?___xxtofl+2,w
  3337  0958  00A2               	movwf	___fldiv@a+2
  3338  0959  0871               	movf	?___xxtofl+1,w
  3339  095A  00A1               	movwf	___fldiv@a+1
  3340  095B  0870               	movf	?___xxtofl,w
  3341  095C  00A0               	movwf	___fldiv@a
  3342  095D  120A  158A  21BA  120A  158A  	fcall	___fldiv
  3343  0962  1283               	bcf	3,5	;RP0=0, select bank0
  3344  0963  1303               	bcf	3,6	;RP1=0, select bank0
  3345  0964  0823               	movf	?___fldiv+3,w
  3346  0965  00C1               	movwf	___flmul@a+3
  3347  0966  0822               	movf	?___fldiv+2,w
  3348  0967  00C0               	movwf	___flmul@a+2
  3349  0968  0821               	movf	?___fldiv+1,w
  3350  0969  00BF               	movwf	___flmul@a+1
  3351  096A  0820               	movf	?___fldiv,w
  3352  096B  00BE               	movwf	___flmul@a
  3353  096C  1683               	bsf	3,5	;RP0=1, select bank1
  3354  096D  1303               	bcf	3,6	;RP1=0, select bank1
  3355  096E  0840               	movf	map@x0^(0+128),w
  3356  096F  023E               	subwf	map@x^(0+128),w
  3357  0970  00F0               	movwf	___xxtofl@val
  3358  0971  083F               	movf	(map@x+1)^(0+128),w
  3359  0972  1C03               	skipc
  3360  0973  033F               	decf	(map@x+1)^(0+128),w
  3361  0974  00F1               	movwf	___xxtofl@val+1
  3362  0975  01F2               	clrf	___xxtofl@val+2
  3363  0976  1BF1               	btfsc	___xxtofl@val+1,7
  3364  0977  03F2               	decf	___xxtofl@val+2,f
  3365  0978  0872               	movf	___xxtofl@val+2,w
  3366  0979  00F3               	movwf	___xxtofl@val+3
  3367  097A  3001               	movlw	1
  3368  097B  120A  118A  26FE  120A  158A  	fcall	___xxtofl
  3369  0980  0873               	movf	?___xxtofl+3,w
  3370  0981  1283               	bcf	3,5	;RP0=0, select bank0
  3371  0982  1303               	bcf	3,6	;RP1=0, select bank0
  3372  0983  00BD               	movwf	___flmul@b+3
  3373  0984  0872               	movf	?___xxtofl+2,w
  3374  0985  00BC               	movwf	___flmul@b+2
  3375  0986  0871               	movf	?___xxtofl+1,w
  3376  0987  00BB               	movwf	___flmul@b+1
  3377  0988  0870               	movf	?___xxtofl,w
  3378  0989  00BA               	movwf	___flmul@b
  3379  098A  120A  118A  239D  120A  158A  	fcall	___flmul
  3380  098F  1283               	bcf	3,5	;RP0=0, select bank0
  3381  0990  1303               	bcf	3,6	;RP1=0, select bank0
  3382  0991  083D               	movf	?___flmul+3,w
  3383  0992  00D7               	movwf	___fladd@b+3
  3384  0993  083C               	movf	?___flmul+2,w
  3385  0994  00D6               	movwf	___fladd@b+2
  3386  0995  083B               	movf	?___flmul+1,w
  3387  0996  00D5               	movwf	___fladd@b+1
  3388  0997  083A               	movf	?___flmul,w
  3389  0998  00D4               	movwf	___fladd@b
  3390  0999  120A  158A  2578  120A  158A  	fcall	___fladd
  3391  099E  1283               	bcf	3,5	;RP0=0, select bank0
  3392  099F  1303               	bcf	3,6	;RP1=0, select bank0
  3393  09A0  0857               	movf	?___fladd+3,w
  3394  09A1  00EB               	movwf	___fltol@f1+3
  3395  09A2  0856               	movf	?___fladd+2,w
  3396  09A3  00EA               	movwf	___fltol@f1+2
  3397  09A4  0855               	movf	?___fladd+1,w
  3398  09A5  00E9               	movwf	___fltol@f1+1
  3399  09A6  0854               	movf	?___fladd,w
  3400  09A7  00E8               	movwf	___fltol@f1
  3401  09A8  160A  118A  2764  120A  158A  	fcall	___fltol
  3402  09AD  1283               	bcf	3,5	;RP0=0, select bank0
  3403  09AE  1303               	bcf	3,6	;RP1=0, select bank0
  3404  09AF  0869               	movf	?___fltol+1,w
  3405  09B0  1683               	bsf	3,5	;RP0=1, select bank1
  3406  09B1  1303               	bcf	3,6	;RP1=0, select bank1
  3407  09B2  00BF               	movwf	(?_map+1)^(0+128)
  3408  09B3  1283               	bcf	3,5	;RP0=0, select bank0
  3409  09B4  1303               	bcf	3,6	;RP1=0, select bank0
  3410  09B5  0868               	movf	?___fltol,w
  3411  09B6  1683               	bsf	3,5	;RP0=1, select bank1
  3412  09B7  1303               	bcf	3,6	;RP1=0, select bank1
  3413  09B8  00BE               	movwf	?_map^(0+128)
  3414  09B9                     i1l269:
  3415  09B9  0008               	return
  3416  09BA                     __end_of_map:
  3417                           
  3418                           	psect	text6
  3419  06FE                     __ptext6:	
  3420 ;; *************** function ___xxtofl *****************
  3421 ;; Defined at:
  3422 ;;		line 10 in file "C:\Program Files\Microchip\xc8\v2.35\pic\sources\c90\common\xxtofl.c"
  3423 ;; Parameters:    Size  Location     Type
  3424 ;;  sign            1    wreg     unsigned char 
  3425 ;;  val             4    0[COMMON] long 
  3426 ;; Auto vars:     Size  Location     Type
  3427 ;;  sign            1    8[COMMON] unsigned char 
  3428 ;;  arg             4   10[COMMON] unsigned long 
  3429 ;;  exp             1    9[COMMON] unsigned char 
  3430 ;; Return value:  Size  Location     Type
  3431 ;;                  4    0[COMMON] unsigned char 
  3432 ;; Registers used:
  3433 ;;		wreg, status,2, status,0
  3434 ;; Tracked objects:
  3435 ;;		On entry : 0/0
  3436 ;;		On exit  : 0/0
  3437 ;;		Unchanged: 0/0
  3438 ;; Data sizes:     COMMON   BANK0   BANK1   BANK3   BANK2
  3439 ;;      Params:         4       0       0       0       0
  3440 ;;      Locals:         6       0       0       0       0
  3441 ;;      Temps:          4       0       0       0       0
  3442 ;;      Totals:        14       0       0       0       0
  3443 ;;Total ram usage:       14 bytes
  3444 ;; Hardware stack levels used: 1
  3445 ;; This function calls:
  3446 ;;		Nothing
  3447 ;; This function is called by:
  3448 ;;		_map
  3449 ;; This function uses a non-reentrant model
  3450 ;;
  3451                           
  3452  06FE                     ___xxtofl:	
  3453                           ;psect for function ___xxtofl
  3454                           
  3455                           
  3456                           ;incstack = 0
  3457                           ; Regs used in ___xxtofl: [wreg+status,2+status,0]
  3458                           ;___xxtofl@sign stored from wreg
  3459  06FE  00F8               	movwf	___xxtofl@sign
  3460  06FF                     i1l2424:
  3461  06FF  0878               	movf	___xxtofl@sign,w
  3462  0700  1903               	btfsc	3,2
  3463  0701  2F03               	goto	u329_21
  3464  0702  2F04               	goto	u329_20
  3465  0703                     u329_21:
  3466  0703  2F18               	goto	i1l2430
  3467  0704                     u329_20:
  3468  0704                     i1l2426:
  3469  0704  1FF3               	btfss	___xxtofl@val+3,7
  3470  0705  2F07               	goto	u330_21
  3471  0706  2F08               	goto	u330_20
  3472  0707                     u330_21:
  3473  0707  2F18               	goto	i1l2430
  3474  0708                     u330_20:
  3475  0708                     i1l2428:
  3476  0708  0970               	comf	___xxtofl@val,w
  3477  0709  00FA               	movwf	___xxtofl@arg
  3478  070A  0971               	comf	___xxtofl@val+1,w
  3479  070B  00FB               	movwf	___xxtofl@arg+1
  3480  070C  0972               	comf	___xxtofl@val+2,w
  3481  070D  00FC               	movwf	___xxtofl@arg+2
  3482  070E  0973               	comf	___xxtofl@val+3,w
  3483  070F  00FD               	movwf	___xxtofl@arg+3
  3484  0710  0AFA               	incf	___xxtofl@arg,f
  3485  0711  1903               	skipnz
  3486  0712  0AFB               	incf	___xxtofl@arg+1,f
  3487  0713  1903               	skipnz
  3488  0714  0AFC               	incf	___xxtofl@arg+2,f
  3489  0715  1903               	skipnz
  3490  0716  0AFD               	incf	___xxtofl@arg+3,f
  3491  0717  2F20               	goto	i1l797
  3492  0718                     i1l2430:
  3493  0718  0873               	movf	___xxtofl@val+3,w
  3494  0719  00FD               	movwf	___xxtofl@arg+3
  3495  071A  0872               	movf	___xxtofl@val+2,w
  3496  071B  00FC               	movwf	___xxtofl@arg+2
  3497  071C  0871               	movf	___xxtofl@val+1,w
  3498  071D  00FB               	movwf	___xxtofl@arg+1
  3499  071E  0870               	movf	___xxtofl@val,w
  3500  071F  00FA               	movwf	___xxtofl@arg
  3501  0720                     i1l797:
  3502  0720  0873               	movf	___xxtofl@val+3,w
  3503  0721  0472               	iorwf	___xxtofl@val+2,w
  3504  0722  0471               	iorwf	___xxtofl@val+1,w
  3505  0723  0470               	iorwf	___xxtofl@val,w
  3506  0724  1D03               	skipz
  3507  0725  2F27               	goto	u331_21
  3508  0726  2F28               	goto	u331_20
  3509  0727                     u331_21:
  3510  0727  2F31               	goto	i1l2436
  3511  0728                     u331_20:
  3512  0728                     i1l2432:
  3513  0728  3000               	movlw	0
  3514  0729  00F3               	movwf	?___xxtofl+3
  3515  072A  3000               	movlw	0
  3516  072B  00F2               	movwf	?___xxtofl+2
  3517  072C  3000               	movlw	0
  3518  072D  00F1               	movwf	?___xxtofl+1
  3519  072E  3000               	movlw	0
  3520  072F  00F0               	movwf	?___xxtofl
  3521  0730  2FB7               	goto	i1l799
  3522  0731                     i1l2436:
  3523  0731  3096               	movlw	150
  3524  0732  00F4               	movwf	??___xxtofl
  3525  0733  0874               	movf	??___xxtofl,w
  3526  0734  00F9               	movwf	___xxtofl@exp
  3527  0735  2F43               	goto	i1l2440
  3528  0736                     i1l2438:
  3529  0736  3001               	movlw	1
  3530  0737  00F4               	movwf	??___xxtofl
  3531  0738  0874               	movf	??___xxtofl,w
  3532  0739  07F9               	addwf	___xxtofl@exp,f
  3533  073A  3001               	movlw	1
  3534  073B                     u332_25:
  3535  073B  1003               	clrc
  3536  073C  0CFD               	rrf	___xxtofl@arg+3,f
  3537  073D  0CFC               	rrf	___xxtofl@arg+2,f
  3538  073E  0CFB               	rrf	___xxtofl@arg+1,f
  3539  073F  0CFA               	rrf	___xxtofl@arg,f
  3540  0740  3EFF               	addlw	-1
  3541  0741  1D03               	skipz
  3542  0742  2F3B               	goto	u332_25
  3543  0743                     i1l2440:
  3544  0743  30FE               	movlw	254
  3545  0744  057D               	andwf	___xxtofl@arg+3,w
  3546  0745  1D03               	btfss	3,2
  3547  0746  2F48               	goto	u333_21
  3548  0747  2F49               	goto	u333_20
  3549  0748                     u333_21:
  3550  0748  2F36               	goto	i1l2438
  3551  0749                     u333_20:
  3552  0749  2F65               	goto	i1l803
  3553  074A                     i1l2442:
  3554  074A  3001               	movlw	1
  3555  074B  00F4               	movwf	??___xxtofl
  3556  074C  0874               	movf	??___xxtofl,w
  3557  074D  07F9               	addwf	___xxtofl@exp,f
  3558  074E                     i1l2444:
  3559  074E  3001               	movlw	1
  3560  074F  07FA               	addwf	___xxtofl@arg,f
  3561  0750  3000               	movlw	0
  3562  0751  1803               	skipnc
  3563  0752  3001               	movlw	1
  3564  0753  07FB               	addwf	___xxtofl@arg+1,f
  3565  0754  3000               	movlw	0
  3566  0755  1803               	skipnc
  3567  0756  3001               	movlw	1
  3568  0757  07FC               	addwf	___xxtofl@arg+2,f
  3569  0758  3000               	movlw	0
  3570  0759  1803               	skipnc
  3571  075A  3001               	movlw	1
  3572  075B  07FD               	addwf	___xxtofl@arg+3,f
  3573  075C                     i1l2446:
  3574  075C  3001               	movlw	1
  3575  075D                     u334_25:
  3576  075D  1003               	clrc
  3577  075E  0CFD               	rrf	___xxtofl@arg+3,f
  3578  075F  0CFC               	rrf	___xxtofl@arg+2,f
  3579  0760  0CFB               	rrf	___xxtofl@arg+1,f
  3580  0761  0CFA               	rrf	___xxtofl@arg,f
  3581  0762  3EFF               	addlw	-1
  3582  0763  1D03               	skipz
  3583  0764  2F5D               	goto	u334_25
  3584  0765                     i1l803:
  3585  0765  30FF               	movlw	255
  3586  0766  057D               	andwf	___xxtofl@arg+3,w
  3587  0767  1D03               	btfss	3,2
  3588  0768  2F6A               	goto	u335_21
  3589  0769  2F6B               	goto	u335_20
  3590  076A                     u335_21:
  3591  076A  2F4A               	goto	i1l2442
  3592  076B                     u335_20:
  3593  076B  2F77               	goto	i1l2450
  3594  076C                     i1l2448:
  3595  076C  3001               	movlw	1
  3596  076D  02F9               	subwf	___xxtofl@exp,f
  3597  076E  3001               	movlw	1
  3598  076F  00F4               	movwf	??___xxtofl
  3599  0770                     u336_25:
  3600  0770  1003               	clrc
  3601  0771  0DFA               	rlf	___xxtofl@arg,f
  3602  0772  0DFB               	rlf	___xxtofl@arg+1,f
  3603  0773  0DFC               	rlf	___xxtofl@arg+2,f
  3604  0774  0DFD               	rlf	___xxtofl@arg+3,f
  3605  0775  0BF4               	decfsz	??___xxtofl,f
  3606  0776  2F70               	goto	u336_25
  3607  0777                     i1l2450:
  3608  0777  1BFC               	btfsc	___xxtofl@arg+2,7
  3609  0778  2F7A               	goto	u337_21
  3610  0779  2F7B               	goto	u337_20
  3611  077A                     u337_21:
  3612  077A  2F81               	goto	i1l810
  3613  077B                     u337_20:
  3614  077B                     i1l2452:
  3615  077B  3002               	movlw	2
  3616  077C  0279               	subwf	___xxtofl@exp,w
  3617  077D  1803               	skipnc
  3618  077E  2F80               	goto	u338_21
  3619  077F  2F81               	goto	u338_20
  3620  0780                     u338_21:
  3621  0780  2F6C               	goto	i1l2448
  3622  0781                     u338_20:
  3623  0781                     i1l810:
  3624  0781  1879               	btfsc	___xxtofl@exp,0
  3625  0782  2F84               	goto	u339_21
  3626  0783  2F85               	goto	u339_20
  3627  0784                     u339_21:
  3628  0784  2F8D               	goto	i1l811
  3629  0785                     u339_20:
  3630  0785                     i1l2454:
  3631  0785  30FF               	movlw	255
  3632  0786  05FA               	andwf	___xxtofl@arg,f
  3633  0787  30FF               	movlw	255
  3634  0788  05FB               	andwf	___xxtofl@arg+1,f
  3635  0789  307F               	movlw	127
  3636  078A  05FC               	andwf	___xxtofl@arg+2,f
  3637  078B  30FF               	movlw	255
  3638  078C  05FD               	andwf	___xxtofl@arg+3,f
  3639  078D                     i1l811:
  3640  078D  1003               	clrc
  3641  078E  0CF9               	rrf	___xxtofl@exp,f
  3642  078F                     i1l2456:
  3643  078F  0879               	movf	___xxtofl@exp,w
  3644  0790  00F4               	movwf	??___xxtofl
  3645  0791  01F5               	clrf	??___xxtofl+1
  3646  0792  01F6               	clrf	??___xxtofl+2
  3647  0793  01F7               	clrf	??___xxtofl+3
  3648  0794  3018               	movlw	24
  3649  0795                     u340_25:
  3650  0795  1003               	clrc
  3651  0796  0DF4               	rlf	??___xxtofl,f
  3652  0797  0DF5               	rlf	??___xxtofl+1,f
  3653  0798  0DF6               	rlf	??___xxtofl+2,f
  3654  0799  0DF7               	rlf	??___xxtofl+3,f
  3655  079A                     u340_20:
  3656  079A  3EFF               	addlw	-1
  3657  079B  1D03               	skipz
  3658  079C  2F95               	goto	u340_25
  3659  079D  0874               	movf	??___xxtofl,w
  3660  079E  04FA               	iorwf	___xxtofl@arg,f
  3661  079F  0875               	movf	??___xxtofl+1,w
  3662  07A0  04FB               	iorwf	___xxtofl@arg+1,f
  3663  07A1  0876               	movf	??___xxtofl+2,w
  3664  07A2  04FC               	iorwf	___xxtofl@arg+2,f
  3665  07A3  0877               	movf	??___xxtofl+3,w
  3666  07A4  04FD               	iorwf	___xxtofl@arg+3,f
  3667  07A5                     i1l2458:
  3668  07A5  0878               	movf	___xxtofl@sign,w
  3669  07A6  1903               	btfsc	3,2
  3670  07A7  2FA9               	goto	u341_21
  3671  07A8  2FAA               	goto	u341_20
  3672  07A9                     u341_21:
  3673  07A9  2FAF               	goto	i1l2464
  3674  07AA                     u341_20:
  3675  07AA                     i1l2460:
  3676  07AA  1FF3               	btfss	___xxtofl@val+3,7
  3677  07AB  2FAD               	goto	u342_21
  3678  07AC  2FAE               	goto	u342_20
  3679  07AD                     u342_21:
  3680  07AD  2FAF               	goto	i1l2464
  3681  07AE                     u342_20:
  3682  07AE                     i1l2462:
  3683  07AE  17FD               	bsf	___xxtofl@arg+3,7
  3684  07AF                     i1l2464:
  3685  07AF  087D               	movf	___xxtofl@arg+3,w
  3686  07B0  00F3               	movwf	?___xxtofl+3
  3687  07B1  087C               	movf	___xxtofl@arg+2,w
  3688  07B2  00F2               	movwf	?___xxtofl+2
  3689  07B3  087B               	movf	___xxtofl@arg+1,w
  3690  07B4  00F1               	movwf	?___xxtofl+1
  3691  07B5  087A               	movf	___xxtofl@arg,w
  3692  07B6  00F0               	movwf	?___xxtofl
  3693  07B7                     i1l799:
  3694  07B7  0008               	return
  3695  07B8                     __end_of___xxtofl:
  3696                           
  3697                           	psect	text7
  3698  1764                     __ptext7:	
  3699 ;; *************** function ___fltol *****************
  3700 ;; Defined at:
  3701 ;;		line 43 in file "C:\Program Files\Microchip\xc8\v2.35\pic\sources\c90\common\fltol.c"
  3702 ;; Parameters:    Size  Location     Type
  3703 ;;  f1              4   72[BANK0 ] unsigned char 
  3704 ;; Auto vars:     Size  Location     Type
  3705 ;;  exp1            1   77[BANK0 ] unsigned char 
  3706 ;;  sign1           1   76[BANK0 ] unsigned char 
  3707 ;; Return value:  Size  Location     Type
  3708 ;;                  4   72[BANK0 ] long 
  3709 ;; Registers used:
  3710 ;;		wreg, status,2, status,0
  3711 ;; Tracked objects:
  3712 ;;		On entry : 0/0
  3713 ;;		On exit  : 0/0
  3714 ;;		Unchanged: 0/0
  3715 ;; Data sizes:     COMMON   BANK0   BANK1   BANK3   BANK2
  3716 ;;      Params:         0       4       0       0       0
  3717 ;;      Locals:         0       2       0       0       0
  3718 ;;      Temps:          0       0       5       0       0
  3719 ;;      Totals:         0       6       5       0       0
  3720 ;;Total ram usage:       11 bytes
  3721 ;; Hardware stack levels used: 1
  3722 ;; This function calls:
  3723 ;;		Nothing
  3724 ;; This function is called by:
  3725 ;;		_map
  3726 ;; This function uses a non-reentrant model
  3727 ;;
  3728                           
  3729  1764                     ___fltol:	
  3730                           ;psect for function ___fltol
  3731                           
  3732  1764                     i1l1912:	
  3733                           ;incstack = 0
  3734                           ; Regs used in ___fltol: [wreg+status,2+status,0]
  3735                           
  3736  1764  1003               	clrc
  3737  1765  1283               	bcf	3,5	;RP0=0, select bank0
  3738  1766  1303               	bcf	3,6	;RP1=0, select bank0
  3739  1767  0D6A               	rlf	___fltol@f1+2,w
  3740  1768  0D6B               	rlf	___fltol@f1+3,w
  3741  1769  1683               	bsf	3,5	;RP0=1, select bank1
  3742  176A  1303               	bcf	3,6	;RP1=0, select bank1
  3743  176B  00B9               	movwf	??___fltol^(0+128)
  3744  176C  0839               	movf	??___fltol^(0+128),w
  3745  176D  1283               	bcf	3,5	;RP0=0, select bank0
  3746  176E  1303               	bcf	3,6	;RP1=0, select bank0
  3747  176F  00ED               	movwf	___fltol@exp1
  3748  1770  086D               	movf	___fltol@exp1,w
  3749  1771  1D03               	btfss	3,2
  3750  1772  2F74               	goto	u207_21
  3751  1773  2F75               	goto	u207_20
  3752  1774                     u207_21:
  3753  1774  2F7E               	goto	i1l1918
  3754  1775                     u207_20:
  3755  1775                     i1l1914:
  3756  1775  3000               	movlw	0
  3757  1776  00EB               	movwf	?___fltol+3
  3758  1777  3000               	movlw	0
  3759  1778  00EA               	movwf	?___fltol+2
  3760  1779  3000               	movlw	0
  3761  177A  00E9               	movwf	?___fltol+1
  3762  177B  3000               	movlw	0
  3763  177C  00E8               	movwf	?___fltol
  3764  177D  2FFF               	goto	i1l550
  3765  177E                     i1l1918:
  3766  177E  0868               	movf	___fltol@f1,w
  3767  177F  1683               	bsf	3,5	;RP0=1, select bank1
  3768  1780  1303               	bcf	3,6	;RP1=0, select bank1
  3769  1781  00B9               	movwf	??___fltol^(0+128)
  3770  1782  1283               	bcf	3,5	;RP0=0, select bank0
  3771  1783  1303               	bcf	3,6	;RP1=0, select bank0
  3772  1784  0869               	movf	___fltol@f1+1,w
  3773  1785  1683               	bsf	3,5	;RP0=1, select bank1
  3774  1786  1303               	bcf	3,6	;RP1=0, select bank1
  3775  1787  00BA               	movwf	(??___fltol^(0+128)+1)
  3776  1788  1283               	bcf	3,5	;RP0=0, select bank0
  3777  1789  1303               	bcf	3,6	;RP1=0, select bank0
  3778  178A  086A               	movf	___fltol@f1+2,w
  3779  178B  1683               	bsf	3,5	;RP0=1, select bank1
  3780  178C  1303               	bcf	3,6	;RP1=0, select bank1
  3781  178D  00BB               	movwf	(??___fltol^(0+128)+2)
  3782  178E  1283               	bcf	3,5	;RP0=0, select bank0
  3783  178F  1303               	bcf	3,6	;RP1=0, select bank0
  3784  1790  086B               	movf	___fltol@f1+3,w
  3785  1791  1683               	bsf	3,5	;RP0=1, select bank1
  3786  1792  1303               	bcf	3,6	;RP1=0, select bank1
  3787  1793  00BC               	movwf	(??___fltol^(0+128)+3)
  3788  1794  301F               	movlw	31
  3789  1795                     u208_25:
  3790  1795  1003               	clrc
  3791  1796  0CBC               	rrf	(??___fltol^(0+128)+3),f
  3792  1797  0CBB               	rrf	(??___fltol^(0+128)+2),f
  3793  1798  0CBA               	rrf	(??___fltol^(0+128)+1),f
  3794  1799  0CB9               	rrf	??___fltol^(0+128),f
  3795  179A                     u208_20:
  3796  179A  3EFF               	addlw	-1
  3797  179B  1D03               	skipz
  3798  179C  2F95               	goto	u208_25
  3799  179D  0839               	movf	??___fltol^(0+128),w
  3800  179E  00BD               	movwf	(??___fltol+4)^(0+128)
  3801  179F  083D               	movf	(??___fltol+4)^(0+128),w
  3802  17A0  1283               	bcf	3,5	;RP0=0, select bank0
  3803  17A1  1303               	bcf	3,6	;RP1=0, select bank0
  3804  17A2  00EC               	movwf	___fltol@sign1
  3805  17A3                     i1l1920:
  3806  17A3  17EA               	bsf	___fltol@f1+2,7
  3807  17A4                     i1l1922:
  3808  17A4  30FF               	movlw	255
  3809  17A5  05E8               	andwf	___fltol@f1,f
  3810  17A6  30FF               	movlw	255
  3811  17A7  05E9               	andwf	___fltol@f1+1,f
  3812  17A8  30FF               	movlw	255
  3813  17A9  05EA               	andwf	___fltol@f1+2,f
  3814  17AA  3000               	movlw	0
  3815  17AB  05EB               	andwf	___fltol@f1+3,f
  3816  17AC                     i1l1924:
  3817  17AC  3096               	movlw	150
  3818  17AD  02ED               	subwf	___fltol@exp1,f
  3819  17AE                     i1l1926:
  3820  17AE  1FED               	btfss	___fltol@exp1,7
  3821  17AF  2FB1               	goto	u209_21
  3822  17B0  2FB2               	goto	u209_20
  3823  17B1                     u209_21:
  3824  17B1  2FD0               	goto	i1l1936
  3825  17B2                     u209_20:
  3826  17B2                     i1l1928:
  3827  17B2  086D               	movf	___fltol@exp1,w
  3828  17B3  3A80               	xorlw	128
  3829  17B4  3E97               	addlw	151
  3830  17B5  1803               	skipnc
  3831  17B6  2FB8               	goto	u210_21
  3832  17B7  2FB9               	goto	u210_20
  3833  17B8                     u210_21:
  3834  17B8  2FBA               	goto	i1l1934
  3835  17B9                     u210_20:
  3836  17B9  2F75               	goto	i1l1914
  3837  17BA                     i1l1934:
  3838  17BA  3001               	movlw	1
  3839  17BB                     u211_25:
  3840  17BB  1003               	clrc
  3841  17BC  0CEB               	rrf	___fltol@f1+3,f
  3842  17BD  0CEA               	rrf	___fltol@f1+2,f
  3843  17BE  0CE9               	rrf	___fltol@f1+1,f
  3844  17BF  0CE8               	rrf	___fltol@f1,f
  3845  17C0  3EFF               	addlw	-1
  3846  17C1  1D03               	skipz
  3847  17C2  2FBB               	goto	u211_25
  3848  17C3  3001               	movlw	1
  3849  17C4  1683               	bsf	3,5	;RP0=1, select bank1
  3850  17C5  1303               	bcf	3,6	;RP1=0, select bank1
  3851  17C6  00B9               	movwf	??___fltol^(0+128)
  3852  17C7  0839               	movf	??___fltol^(0+128),w
  3853  17C8  1283               	bcf	3,5	;RP0=0, select bank0
  3854  17C9  1303               	bcf	3,6	;RP1=0, select bank0
  3855  17CA  07ED               	addwf	___fltol@exp1,f
  3856  17CB  1D03               	btfss	3,2
  3857  17CC  2FCE               	goto	u212_21
  3858  17CD  2FCF               	goto	u212_20
  3859  17CE                     u212_21:
  3860  17CE  2FBA               	goto	i1l1934
  3861  17CF                     u212_20:
  3862  17CF  2FEF               	goto	i1l1944
  3863  17D0                     i1l1936:
  3864  17D0  3020               	movlw	32
  3865  17D1  026D               	subwf	___fltol@exp1,w
  3866  17D2  1C03               	skipc
  3867  17D3  2FD5               	goto	u213_21
  3868  17D4  2FD6               	goto	u213_20
  3869  17D5                     u213_21:
  3870  17D5  2FEA               	goto	i1l557
  3871  17D6                     u213_20:
  3872  17D6  2F75               	goto	i1l1914
  3873  17D7                     i1l1942:
  3874  17D7  3001               	movlw	1
  3875  17D8  1683               	bsf	3,5	;RP0=1, select bank1
  3876  17D9  1303               	bcf	3,6	;RP1=0, select bank1
  3877  17DA  00B9               	movwf	??___fltol^(0+128)
  3878  17DB                     u214_25:
  3879  17DB  1003               	clrc
  3880  17DC  1283               	bcf	3,5	;RP0=0, select bank0
  3881  17DD  1303               	bcf	3,6	;RP1=0, select bank0
  3882  17DE  0DE8               	rlf	___fltol@f1,f
  3883  17DF  0DE9               	rlf	___fltol@f1+1,f
  3884  17E0  0DEA               	rlf	___fltol@f1+2,f
  3885  17E1  0DEB               	rlf	___fltol@f1+3,f
  3886  17E2  1683               	bsf	3,5	;RP0=1, select bank1
  3887  17E3  1303               	bcf	3,6	;RP1=0, select bank1
  3888  17E4  0BB9               	decfsz	??___fltol^(0+128),f
  3889  17E5  2FDB               	goto	u214_25
  3890  17E6  3001               	movlw	1
  3891  17E7  1283               	bcf	3,5	;RP0=0, select bank0
  3892  17E8  1303               	bcf	3,6	;RP1=0, select bank0
  3893  17E9  02ED               	subwf	___fltol@exp1,f
  3894  17EA                     i1l557:
  3895  17EA  086D               	movf	___fltol@exp1,w
  3896  17EB  1D03               	btfss	3,2
  3897  17EC  2FEE               	goto	u215_21
  3898  17ED  2FEF               	goto	u215_20
  3899  17EE                     u215_21:
  3900  17EE  2FD7               	goto	i1l1942
  3901  17EF                     u215_20:
  3902  17EF                     i1l1944:
  3903  17EF  086C               	movf	___fltol@sign1,w
  3904  17F0  1903               	btfsc	3,2
  3905  17F1  2FF3               	goto	u216_21
  3906  17F2  2FF4               	goto	u216_20
  3907  17F3                     u216_21:
  3908  17F3  2FFF               	goto	i1l560
  3909  17F4                     u216_20:
  3910  17F4                     i1l1946:
  3911  17F4  09E8               	comf	___fltol@f1,f
  3912  17F5  09E9               	comf	___fltol@f1+1,f
  3913  17F6  09EA               	comf	___fltol@f1+2,f
  3914  17F7  09EB               	comf	___fltol@f1+3,f
  3915  17F8  0AE8               	incf	___fltol@f1,f
  3916  17F9  1903               	skipnz
  3917  17FA  0AE9               	incf	___fltol@f1+1,f
  3918  17FB  1903               	skipnz
  3919  17FC  0AEA               	incf	___fltol@f1+2,f
  3920  17FD  1903               	skipnz
  3921  17FE  0AEB               	incf	___fltol@f1+3,f
  3922  17FF                     i1l560:
  3923  17FF                     i1l550:
  3924  17FF  0008               	return
  3925  1800                     __end_of___fltol:
  3926                           
  3927                           	psect	text8
  3928  039D                     __ptext8:	
  3929 ;; *************** function ___flmul *****************
  3930 ;; Defined at:
  3931 ;;		line 8 in file "C:\Program Files\Microchip\xc8\v2.35\pic\sources\c90\common\sprcmul.c"
  3932 ;; Parameters:    Size  Location     Type
  3933 ;;  b               4   26[BANK0 ] long 
  3934 ;;  a               4   30[BANK0 ] long 
  3935 ;; Auto vars:     Size  Location     Type
  3936 ;;  prod            4   46[BANK0 ] struct .
  3937 ;;  grs             4   40[BANK0 ] unsigned long 
  3938 ;;  temp            2   50[BANK0 ] struct .
  3939 ;;  bexp            1   45[BANK0 ] unsigned char 
  3940 ;;  aexp            1   44[BANK0 ] unsigned char 
  3941 ;;  sign            1   39[BANK0 ] unsigned char 
  3942 ;; Return value:  Size  Location     Type
  3943 ;;                  4   26[BANK0 ] unsigned char 
  3944 ;; Registers used:
  3945 ;;		wreg, status,2, status,0, btemp+1, pclath, cstack
  3946 ;; Tracked objects:
  3947 ;;		On entry : 0/0
  3948 ;;		On exit  : 0/0
  3949 ;;		Unchanged: 0/0
  3950 ;; Data sizes:     COMMON   BANK0   BANK1   BANK3   BANK2
  3951 ;;      Params:         0       8       0       0       0
  3952 ;;      Locals:         0      13       0       0       0
  3953 ;;      Temps:          0       5       0       0       0
  3954 ;;      Totals:         0      26       0       0       0
  3955 ;;Total ram usage:       26 bytes
  3956 ;; Hardware stack levels used: 1
  3957 ;; Hardware stack levels required when called: 1
  3958 ;; This function calls:
  3959 ;;		__Umul8_16
  3960 ;; This function is called by:
  3961 ;;		_map
  3962 ;; This function uses a non-reentrant model
  3963 ;;
  3964                           
  3965  039D                     ___flmul:	
  3966                           ;psect for function ___flmul
  3967                           
  3968  039D                     i1l2284:	
  3969                           ;incstack = 0
  3970                           ; Regs used in ___flmul: [wreg+status,2+status,0+btemp+1+pclath+cstack]
  3971                           
  3972  039D  1283               	bcf	3,5	;RP0=0, select bank0
  3973  039E  1303               	bcf	3,6	;RP1=0, select bank0
  3974  039F  083D               	movf	___flmul@b+3,w
  3975  03A0  3980               	andlw	128
  3976  03A1  00C2               	movwf	??___flmul
  3977  03A2  0842               	movf	??___flmul,w
  3978  03A3  00C7               	movwf	___flmul@sign
  3979  03A4                     i1l2286:
  3980  03A4  083D               	movf	___flmul@b+3,w
  3981  03A5  00C2               	movwf	??___flmul
  3982  03A6  0742               	addwf	??___flmul,w
  3983  03A7  00C3               	movwf	??___flmul+1
  3984  03A8  0843               	movf	??___flmul+1,w
  3985  03A9  00CD               	movwf	___flmul@bexp
  3986  03AA                     i1l2288:
  3987  03AA  1FBC               	btfss	___flmul@b+2,7
  3988  03AB  2BAD               	goto	u292_21
  3989  03AC  2BAE               	goto	u292_20
  3990  03AD                     u292_21:
  3991  03AD  2BAF               	goto	i1l2292
  3992  03AE                     u292_20:
  3993  03AE                     i1l2290:
  3994  03AE  144D               	bsf	___flmul@bexp,0
  3995  03AF                     i1l2292:
  3996  03AF  084D               	movf	___flmul@bexp,w
  3997  03B0  1903               	btfsc	3,2
  3998  03B1  2BB3               	goto	u293_21
  3999  03B2  2BB4               	goto	u293_20
  4000  03B3                     u293_21:
  4001  03B3  2BC3               	goto	i1l2300
  4002  03B4                     u293_20:
  4003  03B4                     i1l2294:
  4004  03B4  0A4D               	incf	___flmul@bexp,w
  4005  03B5  1D03               	btfss	3,2
  4006  03B6  2BB8               	goto	u294_21
  4007  03B7  2BB9               	goto	u294_20
  4008  03B8                     u294_21:
  4009  03B8  2BC1               	goto	i1l2298
  4010  03B9                     u294_20:
  4011  03B9                     i1l2296:
  4012  03B9  3000               	movlw	0
  4013  03BA  00BD               	movwf	___flmul@b+3
  4014  03BB  3000               	movlw	0
  4015  03BC  00BC               	movwf	___flmul@b+2
  4016  03BD  3000               	movlw	0
  4017  03BE  00BB               	movwf	___flmul@b+1
  4018  03BF  3000               	movlw	0
  4019  03C0  00BA               	movwf	___flmul@b
  4020  03C1                     i1l2298:
  4021  03C1  17BC               	bsf	___flmul@b+2,7
  4022  03C2  2BCB               	goto	i1l2302
  4023  03C3                     i1l2300:
  4024  03C3  3000               	movlw	0
  4025  03C4  00BD               	movwf	___flmul@b+3
  4026  03C5  3000               	movlw	0
  4027  03C6  00BC               	movwf	___flmul@b+2
  4028  03C7  3000               	movlw	0
  4029  03C8  00BB               	movwf	___flmul@b+1
  4030  03C9  3000               	movlw	0
  4031  03CA  00BA               	movwf	___flmul@b
  4032  03CB                     i1l2302:
  4033  03CB  0841               	movf	___flmul@a+3,w
  4034  03CC  3980               	andlw	128
  4035  03CD  00C2               	movwf	??___flmul
  4036  03CE  0842               	movf	??___flmul,w
  4037  03CF  06C7               	xorwf	___flmul@sign,f
  4038  03D0                     i1l2304:
  4039  03D0  0841               	movf	___flmul@a+3,w
  4040  03D1  00C2               	movwf	??___flmul
  4041  03D2  0742               	addwf	??___flmul,w
  4042  03D3  00C3               	movwf	??___flmul+1
  4043  03D4  0843               	movf	??___flmul+1,w
  4044  03D5  00CC               	movwf	___flmul@aexp
  4045  03D6                     i1l2306:
  4046  03D6  1FC0               	btfss	___flmul@a+2,7
  4047  03D7  2BD9               	goto	u295_21
  4048  03D8  2BDA               	goto	u295_20
  4049  03D9                     u295_21:
  4050  03D9  2BDB               	goto	i1l2310
  4051  03DA                     u295_20:
  4052  03DA                     i1l2308:
  4053  03DA  144C               	bsf	___flmul@aexp,0
  4054  03DB                     i1l2310:
  4055  03DB  084C               	movf	___flmul@aexp,w
  4056  03DC  1903               	btfsc	3,2
  4057  03DD  2BDF               	goto	u296_21
  4058  03DE  2BE0               	goto	u296_20
  4059  03DF                     u296_21:
  4060  03DF  2BEF               	goto	i1l2318
  4061  03E0                     u296_20:
  4062  03E0                     i1l2312:
  4063  03E0  0A4C               	incf	___flmul@aexp,w
  4064  03E1  1D03               	btfss	3,2
  4065  03E2  2BE4               	goto	u297_21
  4066  03E3  2BE5               	goto	u297_20
  4067  03E4                     u297_21:
  4068  03E4  2BED               	goto	i1l2316
  4069  03E5                     u297_20:
  4070  03E5                     i1l2314:
  4071  03E5  3000               	movlw	0
  4072  03E6  00C1               	movwf	___flmul@a+3
  4073  03E7  3000               	movlw	0
  4074  03E8  00C0               	movwf	___flmul@a+2
  4075  03E9  3000               	movlw	0
  4076  03EA  00BF               	movwf	___flmul@a+1
  4077  03EB  3000               	movlw	0
  4078  03EC  00BE               	movwf	___flmul@a
  4079  03ED                     i1l2316:
  4080  03ED  17C0               	bsf	___flmul@a+2,7
  4081  03EE  2BF7               	goto	i1l2320
  4082  03EF                     i1l2318:
  4083  03EF  3000               	movlw	0
  4084  03F0  00C1               	movwf	___flmul@a+3
  4085  03F1  3000               	movlw	0
  4086  03F2  00C0               	movwf	___flmul@a+2
  4087  03F3  3000               	movlw	0
  4088  03F4  00BF               	movwf	___flmul@a+1
  4089  03F5  3000               	movlw	0
  4090  03F6  00BE               	movwf	___flmul@a
  4091  03F7                     i1l2320:
  4092  03F7  084C               	movf	___flmul@aexp,w
  4093  03F8  1903               	btfsc	3,2
  4094  03F9  2BFB               	goto	u298_21
  4095  03FA  2BFC               	goto	u298_20
  4096  03FB                     u298_21:
  4097  03FB  2C01               	goto	i1l2324
  4098  03FC                     u298_20:
  4099  03FC                     i1l2322:
  4100  03FC  084D               	movf	___flmul@bexp,w
  4101  03FD  1D03               	btfss	3,2
  4102  03FE  2C00               	goto	u299_21
  4103  03FF  2C01               	goto	u299_20
  4104  0400                     u299_21:
  4105  0400  2C0A               	goto	i1l2328
  4106  0401                     u299_20:
  4107  0401                     i1l2324:
  4108  0401  3000               	movlw	0
  4109  0402  00BD               	movwf	?___flmul+3
  4110  0403  3000               	movlw	0
  4111  0404  00BC               	movwf	?___flmul+2
  4112  0405  3000               	movlw	0
  4113  0406  00BB               	movwf	?___flmul+1
  4114  0407  3000               	movlw	0
  4115  0408  00BA               	movwf	?___flmul
  4116  0409  2EFD               	goto	i1l753
  4117  040A                     i1l2328:
  4118  040A  083A               	movf	___flmul@b,w
  4119  040B  00C2               	movwf	??___flmul
  4120  040C  0842               	movf	??___flmul,w
  4121  040D  00F0               	movwf	__Umul8_16@multiplicand
  4122  040E  0840               	movf	___flmul@a+2,w
  4123  040F  120A  118A  27B8  120A  118A  	fcall	__Umul8_16
  4124  0414  0871               	movf	?__Umul8_16+1,w
  4125  0415  1283               	bcf	3,5	;RP0=0, select bank0
  4126  0416  1303               	bcf	3,6	;RP1=0, select bank0
  4127  0417  00D3               	movwf	___flmul@temp+1
  4128  0418  0870               	movf	?__Umul8_16,w
  4129  0419  00D2               	movwf	___flmul@temp
  4130  041A                     i1l2330:
  4131  041A  0852               	movf	___flmul@temp,w
  4132  041B  00C2               	movwf	??___flmul
  4133  041C  01C3               	clrf	??___flmul+1
  4134  041D  01C4               	clrf	??___flmul+2
  4135  041E  01C5               	clrf	??___flmul+3
  4136  041F  0845               	movf	??___flmul+3,w
  4137  0420  00CB               	movwf	___flmul@grs+3
  4138  0421  0844               	movf	??___flmul+2,w
  4139  0422  00CA               	movwf	___flmul@grs+2
  4140  0423  0843               	movf	??___flmul+1,w
  4141  0424  00C9               	movwf	___flmul@grs+1
  4142  0425  0842               	movf	??___flmul,w
  4143  0426  00C8               	movwf	___flmul@grs
  4144  0427                     i1l2332:
  4145  0427  0853               	movf	___flmul@temp+1,w
  4146  0428  00C2               	movwf	??___flmul
  4147  0429  01C3               	clrf	??___flmul+1
  4148  042A  01C4               	clrf	??___flmul+2
  4149  042B  01C5               	clrf	??___flmul+3
  4150  042C  0845               	movf	??___flmul+3,w
  4151  042D  00D1               	movwf	___flmul@prod+3
  4152  042E  0844               	movf	??___flmul+2,w
  4153  042F  00D0               	movwf	___flmul@prod+2
  4154  0430  0843               	movf	??___flmul+1,w
  4155  0431  00CF               	movwf	___flmul@prod+1
  4156  0432  0842               	movf	??___flmul,w
  4157  0433  00CE               	movwf	___flmul@prod
  4158  0434  083B               	movf	___flmul@b+1,w
  4159  0435  00C2               	movwf	??___flmul
  4160  0436  0842               	movf	??___flmul,w
  4161  0437  00F0               	movwf	__Umul8_16@multiplicand
  4162  0438  083F               	movf	___flmul@a+1,w
  4163  0439  120A  118A  27B8  120A  118A  	fcall	__Umul8_16
  4164  043E  0871               	movf	?__Umul8_16+1,w
  4165  043F  1283               	bcf	3,5	;RP0=0, select bank0
  4166  0440  1303               	bcf	3,6	;RP1=0, select bank0
  4167  0441  00D3               	movwf	___flmul@temp+1
  4168  0442  0870               	movf	?__Umul8_16,w
  4169  0443  00D2               	movwf	___flmul@temp
  4170  0444                     i1l2334:
  4171  0444  0852               	movf	___flmul@temp,w
  4172  0445  00C2               	movwf	??___flmul
  4173  0446  01C3               	clrf	??___flmul+1
  4174  0447  01C4               	clrf	??___flmul+2
  4175  0448  01C5               	clrf	??___flmul+3
  4176  0449  0842               	movf	??___flmul,w
  4177  044A  07C8               	addwf	___flmul@grs,f
  4178  044B  0843               	movf	??___flmul+1,w
  4179  044C  1103               	clrz
  4180  044D  1803               	skipnc
  4181  044E  3E01               	addlw	1
  4182  044F  1903               	skipnz
  4183  0450  2C52               	goto	u300_21
  4184  0451  07C9               	addwf	___flmul@grs+1,f
  4185  0452                     u300_21:
  4186  0452  0844               	movf	??___flmul+2,w
  4187  0453  1103               	clrz
  4188  0454  1803               	skipnc
  4189  0455  3E01               	addlw	1
  4190  0456  1903               	skipnz
  4191  0457  2C59               	goto	u300_22
  4192  0458  07CA               	addwf	___flmul@grs+2,f
  4193  0459                     u300_22:
  4194  0459  0845               	movf	??___flmul+3,w
  4195  045A  1103               	clrz
  4196  045B  1803               	skipnc
  4197  045C  3E01               	addlw	1
  4198  045D  1903               	skipnz
  4199  045E  2C60               	goto	u300_23
  4200  045F  07CB               	addwf	___flmul@grs+3,f
  4201  0460                     u300_23:
  4202  0460                     i1l2336:
  4203  0460  0853               	movf	___flmul@temp+1,w
  4204  0461  00C2               	movwf	??___flmul
  4205  0462  01C3               	clrf	??___flmul+1
  4206  0463  01C4               	clrf	??___flmul+2
  4207  0464  01C5               	clrf	??___flmul+3
  4208  0465  0842               	movf	??___flmul,w
  4209  0466  07CE               	addwf	___flmul@prod,f
  4210  0467  0843               	movf	??___flmul+1,w
  4211  0468  1103               	clrz
  4212  0469  1803               	skipnc
  4213  046A  3E01               	addlw	1
  4214  046B  1903               	skipnz
  4215  046C  2C6E               	goto	u301_21
  4216  046D  07CF               	addwf	___flmul@prod+1,f
  4217  046E                     u301_21:
  4218  046E  0844               	movf	??___flmul+2,w
  4219  046F  1103               	clrz
  4220  0470  1803               	skipnc
  4221  0471  3E01               	addlw	1
  4222  0472  1903               	skipnz
  4223  0473  2C75               	goto	u301_22
  4224  0474  07D0               	addwf	___flmul@prod+2,f
  4225  0475                     u301_22:
  4226  0475  0845               	movf	??___flmul+3,w
  4227  0476  1103               	clrz
  4228  0477  1803               	skipnc
  4229  0478  3E01               	addlw	1
  4230  0479  1903               	skipnz
  4231  047A  2C7C               	goto	u301_23
  4232  047B  07D1               	addwf	___flmul@prod+3,f
  4233  047C                     u301_23:
  4234  047C  083C               	movf	___flmul@b+2,w
  4235  047D  00C2               	movwf	??___flmul
  4236  047E  0842               	movf	??___flmul,w
  4237  047F  00F0               	movwf	__Umul8_16@multiplicand
  4238  0480  083E               	movf	___flmul@a,w
  4239  0481  120A  118A  27B8  120A  118A  	fcall	__Umul8_16
  4240  0486  0871               	movf	?__Umul8_16+1,w
  4241  0487  1283               	bcf	3,5	;RP0=0, select bank0
  4242  0488  1303               	bcf	3,6	;RP1=0, select bank0
  4243  0489  00D3               	movwf	___flmul@temp+1
  4244  048A  0870               	movf	?__Umul8_16,w
  4245  048B  00D2               	movwf	___flmul@temp
  4246  048C                     i1l2338:
  4247  048C  0852               	movf	___flmul@temp,w
  4248  048D  00C2               	movwf	??___flmul
  4249  048E  01C3               	clrf	??___flmul+1
  4250  048F  01C4               	clrf	??___flmul+2
  4251  0490  01C5               	clrf	??___flmul+3
  4252  0491  0842               	movf	??___flmul,w
  4253  0492  07C8               	addwf	___flmul@grs,f
  4254  0493  0843               	movf	??___flmul+1,w
  4255  0494  1103               	clrz
  4256  0495  1803               	skipnc
  4257  0496  3E01               	addlw	1
  4258  0497  1903               	skipnz
  4259  0498  2C9A               	goto	u302_21
  4260  0499  07C9               	addwf	___flmul@grs+1,f
  4261  049A                     u302_21:
  4262  049A  0844               	movf	??___flmul+2,w
  4263  049B  1103               	clrz
  4264  049C  1803               	skipnc
  4265  049D  3E01               	addlw	1
  4266  049E  1903               	skipnz
  4267  049F  2CA1               	goto	u302_22
  4268  04A0  07CA               	addwf	___flmul@grs+2,f
  4269  04A1                     u302_22:
  4270  04A1  0845               	movf	??___flmul+3,w
  4271  04A2  1103               	clrz
  4272  04A3  1803               	skipnc
  4273  04A4  3E01               	addlw	1
  4274  04A5  1903               	skipnz
  4275  04A6  2CA8               	goto	u302_23
  4276  04A7  07CB               	addwf	___flmul@grs+3,f
  4277  04A8                     u302_23:
  4278  04A8                     i1l2340:
  4279  04A8  0853               	movf	___flmul@temp+1,w
  4280  04A9  00C2               	movwf	??___flmul
  4281  04AA  01C3               	clrf	??___flmul+1
  4282  04AB  01C4               	clrf	??___flmul+2
  4283  04AC  01C5               	clrf	??___flmul+3
  4284  04AD  0842               	movf	??___flmul,w
  4285  04AE  07CE               	addwf	___flmul@prod,f
  4286  04AF  0843               	movf	??___flmul+1,w
  4287  04B0  1103               	clrz
  4288  04B1  1803               	skipnc
  4289  04B2  3E01               	addlw	1
  4290  04B3  1903               	skipnz
  4291  04B4  2CB6               	goto	u303_21
  4292  04B5  07CF               	addwf	___flmul@prod+1,f
  4293  04B6                     u303_21:
  4294  04B6  0844               	movf	??___flmul+2,w
  4295  04B7  1103               	clrz
  4296  04B8  1803               	skipnc
  4297  04B9  3E01               	addlw	1
  4298  04BA  1903               	skipnz
  4299  04BB  2CBD               	goto	u303_22
  4300  04BC  07D0               	addwf	___flmul@prod+2,f
  4301  04BD                     u303_22:
  4302  04BD  0845               	movf	??___flmul+3,w
  4303  04BE  1103               	clrz
  4304  04BF  1803               	skipnc
  4305  04C0  3E01               	addlw	1
  4306  04C1  1903               	skipnz
  4307  04C2  2CC4               	goto	u303_23
  4308  04C3  07D1               	addwf	___flmul@prod+3,f
  4309  04C4                     u303_23:
  4310  04C4                     i1l2342:
  4311  04C4  3008               	movlw	8
  4312  04C5  00C2               	movwf	??___flmul
  4313  04C6                     u304_25:
  4314  04C6  1003               	clrc
  4315  04C7  0DC8               	rlf	___flmul@grs,f
  4316  04C8  0DC9               	rlf	___flmul@grs+1,f
  4317  04C9  0DCA               	rlf	___flmul@grs+2,f
  4318  04CA  0DCB               	rlf	___flmul@grs+3,f
  4319  04CB  0BC2               	decfsz	??___flmul,f
  4320  04CC  2CC6               	goto	u304_25
  4321  04CD                     i1l2344:
  4322  04CD  083B               	movf	___flmul@b+1,w
  4323  04CE  00C2               	movwf	??___flmul
  4324  04CF  0842               	movf	??___flmul,w
  4325  04D0  00F0               	movwf	__Umul8_16@multiplicand
  4326  04D1  083E               	movf	___flmul@a,w
  4327  04D2  120A  118A  27B8  120A  118A  	fcall	__Umul8_16
  4328  04D7  0871               	movf	?__Umul8_16+1,w
  4329  04D8  1283               	bcf	3,5	;RP0=0, select bank0
  4330  04D9  1303               	bcf	3,6	;RP1=0, select bank0
  4331  04DA  00D3               	movwf	___flmul@temp+1
  4332  04DB  0870               	movf	?__Umul8_16,w
  4333  04DC  00D2               	movwf	___flmul@temp
  4334  04DD                     i1l2346:
  4335  04DD  0852               	movf	___flmul@temp,w
  4336  04DE  00C2               	movwf	??___flmul
  4337  04DF  0853               	movf	___flmul@temp+1,w
  4338  04E0  00C3               	movwf	??___flmul+1
  4339  04E1  01C4               	clrf	??___flmul+2
  4340  04E2  01C5               	clrf	??___flmul+3
  4341  04E3  0842               	movf	??___flmul,w
  4342  04E4  07C8               	addwf	___flmul@grs,f
  4343  04E5  0843               	movf	??___flmul+1,w
  4344  04E6  1103               	clrz
  4345  04E7  1803               	skipnc
  4346  04E8  3E01               	addlw	1
  4347  04E9  1903               	skipnz
  4348  04EA  2CEC               	goto	u305_21
  4349  04EB  07C9               	addwf	___flmul@grs+1,f
  4350  04EC                     u305_21:
  4351  04EC  0844               	movf	??___flmul+2,w
  4352  04ED  1103               	clrz
  4353  04EE  1803               	skipnc
  4354  04EF  3E01               	addlw	1
  4355  04F0  1903               	skipnz
  4356  04F1  2CF3               	goto	u305_22
  4357  04F2  07CA               	addwf	___flmul@grs+2,f
  4358  04F3                     u305_22:
  4359  04F3  0845               	movf	??___flmul+3,w
  4360  04F4  1103               	clrz
  4361  04F5  1803               	skipnc
  4362  04F6  3E01               	addlw	1
  4363  04F7  1903               	skipnz
  4364  04F8  2CFA               	goto	u305_23
  4365  04F9  07CB               	addwf	___flmul@grs+3,f
  4366  04FA                     u305_23:
  4367  04FA                     i1l2348:
  4368  04FA  083A               	movf	___flmul@b,w
  4369  04FB  00C2               	movwf	??___flmul
  4370  04FC  0842               	movf	??___flmul,w
  4371  04FD  00F0               	movwf	__Umul8_16@multiplicand
  4372  04FE  083F               	movf	___flmul@a+1,w
  4373  04FF  120A  118A  27B8  120A  118A  	fcall	__Umul8_16
  4374  0504  0871               	movf	?__Umul8_16+1,w
  4375  0505  1283               	bcf	3,5	;RP0=0, select bank0
  4376  0506  1303               	bcf	3,6	;RP1=0, select bank0
  4377  0507  00D3               	movwf	___flmul@temp+1
  4378  0508  0870               	movf	?__Umul8_16,w
  4379  0509  00D2               	movwf	___flmul@temp
  4380  050A                     i1l2350:
  4381  050A  0852               	movf	___flmul@temp,w
  4382  050B  00C2               	movwf	??___flmul
  4383  050C  0853               	movf	___flmul@temp+1,w
  4384  050D  00C3               	movwf	??___flmul+1
  4385  050E  01C4               	clrf	??___flmul+2
  4386  050F  01C5               	clrf	??___flmul+3
  4387  0510  0842               	movf	??___flmul,w
  4388  0511  07C8               	addwf	___flmul@grs,f
  4389  0512  0843               	movf	??___flmul+1,w
  4390  0513  1103               	clrz
  4391  0514  1803               	skipnc
  4392  0515  3E01               	addlw	1
  4393  0516  1903               	skipnz
  4394  0517  2D19               	goto	u306_21
  4395  0518  07C9               	addwf	___flmul@grs+1,f
  4396  0519                     u306_21:
  4397  0519  0844               	movf	??___flmul+2,w
  4398  051A  1103               	clrz
  4399  051B  1803               	skipnc
  4400  051C  3E01               	addlw	1
  4401  051D  1903               	skipnz
  4402  051E  2D20               	goto	u306_22
  4403  051F  07CA               	addwf	___flmul@grs+2,f
  4404  0520                     u306_22:
  4405  0520  0845               	movf	??___flmul+3,w
  4406  0521  1103               	clrz
  4407  0522  1803               	skipnc
  4408  0523  3E01               	addlw	1
  4409  0524  1903               	skipnz
  4410  0525  2D27               	goto	u306_23
  4411  0526  07CB               	addwf	___flmul@grs+3,f
  4412  0527                     u306_23:
  4413  0527                     i1l2352:
  4414  0527  3008               	movlw	8
  4415  0528  00C2               	movwf	??___flmul
  4416  0529                     u307_25:
  4417  0529  1003               	clrc
  4418  052A  0DC8               	rlf	___flmul@grs,f
  4419  052B  0DC9               	rlf	___flmul@grs+1,f
  4420  052C  0DCA               	rlf	___flmul@grs+2,f
  4421  052D  0DCB               	rlf	___flmul@grs+3,f
  4422  052E  0BC2               	decfsz	??___flmul,f
  4423  052F  2D29               	goto	u307_25
  4424  0530  083A               	movf	___flmul@b,w
  4425  0531  00C2               	movwf	??___flmul
  4426  0532  0842               	movf	??___flmul,w
  4427  0533  00F0               	movwf	__Umul8_16@multiplicand
  4428  0534  083E               	movf	___flmul@a,w
  4429  0535  120A  118A  27B8  120A  118A  	fcall	__Umul8_16
  4430  053A  0871               	movf	?__Umul8_16+1,w
  4431  053B  1283               	bcf	3,5	;RP0=0, select bank0
  4432  053C  1303               	bcf	3,6	;RP1=0, select bank0
  4433  053D  00D3               	movwf	___flmul@temp+1
  4434  053E  0870               	movf	?__Umul8_16,w
  4435  053F  00D2               	movwf	___flmul@temp
  4436  0540                     i1l2354:
  4437  0540  0852               	movf	___flmul@temp,w
  4438  0541  00C2               	movwf	??___flmul
  4439  0542  0853               	movf	___flmul@temp+1,w
  4440  0543  00C3               	movwf	??___flmul+1
  4441  0544  01C4               	clrf	??___flmul+2
  4442  0545  01C5               	clrf	??___flmul+3
  4443  0546  0842               	movf	??___flmul,w
  4444  0547  07C8               	addwf	___flmul@grs,f
  4445  0548  0843               	movf	??___flmul+1,w
  4446  0549  1103               	clrz
  4447  054A  1803               	skipnc
  4448  054B  3E01               	addlw	1
  4449  054C  1903               	skipnz
  4450  054D  2D4F               	goto	u308_21
  4451  054E  07C9               	addwf	___flmul@grs+1,f
  4452  054F                     u308_21:
  4453  054F  0844               	movf	??___flmul+2,w
  4454  0550  1103               	clrz
  4455  0551  1803               	skipnc
  4456  0552  3E01               	addlw	1
  4457  0553  1903               	skipnz
  4458  0554  2D56               	goto	u308_22
  4459  0555  07CA               	addwf	___flmul@grs+2,f
  4460  0556                     u308_22:
  4461  0556  0845               	movf	??___flmul+3,w
  4462  0557  1103               	clrz
  4463  0558  1803               	skipnc
  4464  0559  3E01               	addlw	1
  4465  055A  1903               	skipnz
  4466  055B  2D5D               	goto	u308_23
  4467  055C  07CB               	addwf	___flmul@grs+3,f
  4468  055D                     u308_23:
  4469  055D                     i1l2356:
  4470  055D  083B               	movf	___flmul@b+1,w
  4471  055E  00C2               	movwf	??___flmul
  4472  055F  0842               	movf	??___flmul,w
  4473  0560  00F0               	movwf	__Umul8_16@multiplicand
  4474  0561  0840               	movf	___flmul@a+2,w
  4475  0562  120A  118A  27B8  120A  118A  	fcall	__Umul8_16
  4476  0567  0871               	movf	?__Umul8_16+1,w
  4477  0568  1283               	bcf	3,5	;RP0=0, select bank0
  4478  0569  1303               	bcf	3,6	;RP1=0, select bank0
  4479  056A  00D3               	movwf	___flmul@temp+1
  4480  056B  0870               	movf	?__Umul8_16,w
  4481  056C  00D2               	movwf	___flmul@temp
  4482  056D  0852               	movf	___flmul@temp,w
  4483  056E  00C2               	movwf	??___flmul
  4484  056F  0853               	movf	___flmul@temp+1,w
  4485  0570  00C3               	movwf	??___flmul+1
  4486  0571  01C4               	clrf	??___flmul+2
  4487  0572  01C5               	clrf	??___flmul+3
  4488  0573  0842               	movf	??___flmul,w
  4489  0574  07CE               	addwf	___flmul@prod,f
  4490  0575  0843               	movf	??___flmul+1,w
  4491  0576  1103               	clrz
  4492  0577  1803               	skipnc
  4493  0578  3E01               	addlw	1
  4494  0579  1903               	skipnz
  4495  057A  2D7C               	goto	u309_21
  4496  057B  07CF               	addwf	___flmul@prod+1,f
  4497  057C                     u309_21:
  4498  057C  0844               	movf	??___flmul+2,w
  4499  057D  1103               	clrz
  4500  057E  1803               	skipnc
  4501  057F  3E01               	addlw	1
  4502  0580  1903               	skipnz
  4503  0581  2D83               	goto	u309_22
  4504  0582  07D0               	addwf	___flmul@prod+2,f
  4505  0583                     u309_22:
  4506  0583  0845               	movf	??___flmul+3,w
  4507  0584  1103               	clrz
  4508  0585  1803               	skipnc
  4509  0586  3E01               	addlw	1
  4510  0587  1903               	skipnz
  4511  0588  2D8A               	goto	u309_23
  4512  0589  07D1               	addwf	___flmul@prod+3,f
  4513  058A                     u309_23:
  4514  058A                     i1l2358:
  4515  058A  083C               	movf	___flmul@b+2,w
  4516  058B  00C2               	movwf	??___flmul
  4517  058C  0842               	movf	??___flmul,w
  4518  058D  00F0               	movwf	__Umul8_16@multiplicand
  4519  058E  083F               	movf	___flmul@a+1,w
  4520  058F  120A  118A  27B8  120A  118A  	fcall	__Umul8_16
  4521  0594  0871               	movf	?__Umul8_16+1,w
  4522  0595  1283               	bcf	3,5	;RP0=0, select bank0
  4523  0596  1303               	bcf	3,6	;RP1=0, select bank0
  4524  0597  00D3               	movwf	___flmul@temp+1
  4525  0598  0870               	movf	?__Umul8_16,w
  4526  0599  00D2               	movwf	___flmul@temp
  4527  059A                     i1l2360:
  4528  059A  0852               	movf	___flmul@temp,w
  4529  059B  00C2               	movwf	??___flmul
  4530  059C  0853               	movf	___flmul@temp+1,w
  4531  059D  00C3               	movwf	??___flmul+1
  4532  059E  01C4               	clrf	??___flmul+2
  4533  059F  01C5               	clrf	??___flmul+3
  4534  05A0  0842               	movf	??___flmul,w
  4535  05A1  07CE               	addwf	___flmul@prod,f
  4536  05A2  0843               	movf	??___flmul+1,w
  4537  05A3  1103               	clrz
  4538  05A4  1803               	skipnc
  4539  05A5  3E01               	addlw	1
  4540  05A6  1903               	skipnz
  4541  05A7  2DA9               	goto	u310_21
  4542  05A8  07CF               	addwf	___flmul@prod+1,f
  4543  05A9                     u310_21:
  4544  05A9  0844               	movf	??___flmul+2,w
  4545  05AA  1103               	clrz
  4546  05AB  1803               	skipnc
  4547  05AC  3E01               	addlw	1
  4548  05AD  1903               	skipnz
  4549  05AE  2DB0               	goto	u310_22
  4550  05AF  07D0               	addwf	___flmul@prod+2,f
  4551  05B0                     u310_22:
  4552  05B0  0845               	movf	??___flmul+3,w
  4553  05B1  1103               	clrz
  4554  05B2  1803               	skipnc
  4555  05B3  3E01               	addlw	1
  4556  05B4  1903               	skipnz
  4557  05B5  2DB7               	goto	u310_23
  4558  05B6  07D1               	addwf	___flmul@prod+3,f
  4559  05B7                     u310_23:
  4560  05B7  083C               	movf	___flmul@b+2,w
  4561  05B8  00C2               	movwf	??___flmul
  4562  05B9  0842               	movf	??___flmul,w
  4563  05BA  00F0               	movwf	__Umul8_16@multiplicand
  4564  05BB  0840               	movf	___flmul@a+2,w
  4565  05BC  120A  118A  27B8  120A  118A  	fcall	__Umul8_16
  4566  05C1  0871               	movf	?__Umul8_16+1,w
  4567  05C2  1283               	bcf	3,5	;RP0=0, select bank0
  4568  05C3  1303               	bcf	3,6	;RP1=0, select bank0
  4569  05C4  00D3               	movwf	___flmul@temp+1
  4570  05C5  0870               	movf	?__Umul8_16,w
  4571  05C6  00D2               	movwf	___flmul@temp
  4572  05C7                     i1l2362:
  4573  05C7  0852               	movf	___flmul@temp,w
  4574  05C8  00C2               	movwf	??___flmul
  4575  05C9  0853               	movf	___flmul@temp+1,w
  4576  05CA  00C3               	movwf	??___flmul+1
  4577  05CB  01C4               	clrf	??___flmul+2
  4578  05CC  01C5               	clrf	??___flmul+3
  4579  05CD  3008               	movlw	8
  4580  05CE                     u311_25:
  4581  05CE  1003               	clrc
  4582  05CF  0DC2               	rlf	??___flmul,f
  4583  05D0  0DC3               	rlf	??___flmul+1,f
  4584  05D1  0DC4               	rlf	??___flmul+2,f
  4585  05D2  0DC5               	rlf	??___flmul+3,f
  4586  05D3                     u311_20:
  4587  05D3  3EFF               	addlw	-1
  4588  05D4  1D03               	skipz
  4589  05D5  2DCE               	goto	u311_25
  4590  05D6  0842               	movf	??___flmul,w
  4591  05D7  07CE               	addwf	___flmul@prod,f
  4592  05D8  0843               	movf	??___flmul+1,w
  4593  05D9  1103               	clrz
  4594  05DA  1803               	skipnc
  4595  05DB  3E01               	addlw	1
  4596  05DC  1903               	skipnz
  4597  05DD  2DDF               	goto	u312_21
  4598  05DE  07CF               	addwf	___flmul@prod+1,f
  4599  05DF                     u312_21:
  4600  05DF  0844               	movf	??___flmul+2,w
  4601  05E0  1103               	clrz
  4602  05E1  1803               	skipnc
  4603  05E2  3E01               	addlw	1
  4604  05E3  1903               	skipnz
  4605  05E4  2DE6               	goto	u312_22
  4606  05E5  07D0               	addwf	___flmul@prod+2,f
  4607  05E6                     u312_22:
  4608  05E6  0845               	movf	??___flmul+3,w
  4609  05E7  1103               	clrz
  4610  05E8  1803               	skipnc
  4611  05E9  3E01               	addlw	1
  4612  05EA  1903               	skipnz
  4613  05EB  2DED               	goto	u312_23
  4614  05EC  07D1               	addwf	___flmul@prod+3,f
  4615  05ED                     u312_23:
  4616  05ED                     i1l2364:
  4617  05ED  0848               	movf	___flmul@grs,w
  4618  05EE  00C2               	movwf	??___flmul
  4619  05EF  0849               	movf	___flmul@grs+1,w
  4620  05F0  00C3               	movwf	??___flmul+1
  4621  05F1  084A               	movf	___flmul@grs+2,w
  4622  05F2  00C4               	movwf	??___flmul+2
  4623  05F3  084B               	movf	___flmul@grs+3,w
  4624  05F4  00C5               	movwf	??___flmul+3
  4625  05F5  3018               	movlw	24
  4626  05F6                     u313_25:
  4627  05F6  1003               	clrc
  4628  05F7  0CC5               	rrf	??___flmul+3,f
  4629  05F8  0CC4               	rrf	??___flmul+2,f
  4630  05F9  0CC3               	rrf	??___flmul+1,f
  4631  05FA  0CC2               	rrf	??___flmul,f
  4632  05FB                     u313_20:
  4633  05FB  3EFF               	addlw	-1
  4634  05FC  1D03               	skipz
  4635  05FD  2DF6               	goto	u313_25
  4636  05FE  0842               	movf	??___flmul,w
  4637  05FF  07CE               	addwf	___flmul@prod,f
  4638  0600  0843               	movf	??___flmul+1,w
  4639  0601  1103               	clrz
  4640  0602  1803               	skipnc
  4641  0603  3E01               	addlw	1
  4642  0604  1903               	skipnz
  4643  0605  2E07               	goto	u314_21
  4644  0606  07CF               	addwf	___flmul@prod+1,f
  4645  0607                     u314_21:
  4646  0607  0844               	movf	??___flmul+2,w
  4647  0608  1103               	clrz
  4648  0609  1803               	skipnc
  4649  060A  3E01               	addlw	1
  4650  060B  1903               	skipnz
  4651  060C  2E0E               	goto	u314_22
  4652  060D  07D0               	addwf	___flmul@prod+2,f
  4653  060E                     u314_22:
  4654  060E  0845               	movf	??___flmul+3,w
  4655  060F  1103               	clrz
  4656  0610  1803               	skipnc
  4657  0611  3E01               	addlw	1
  4658  0612  1903               	skipnz
  4659  0613  2E15               	goto	u314_23
  4660  0614  07D1               	addwf	___flmul@prod+3,f
  4661  0615                     u314_23:
  4662  0615                     i1l2366:
  4663  0615  3008               	movlw	8
  4664  0616  00C2               	movwf	??___flmul
  4665  0617                     u315_25:
  4666  0617  1003               	clrc
  4667  0618  0DC8               	rlf	___flmul@grs,f
  4668  0619  0DC9               	rlf	___flmul@grs+1,f
  4669  061A  0DCA               	rlf	___flmul@grs+2,f
  4670  061B  0DCB               	rlf	___flmul@grs+3,f
  4671  061C  0BC2               	decfsz	??___flmul,f
  4672  061D  2E17               	goto	u315_25
  4673  061E                     i1l2368:
  4674  061E  084D               	movf	___flmul@bexp,w
  4675  061F  074C               	addwf	___flmul@aexp,w
  4676  0620  00C2               	movwf	??___flmul
  4677  0621  01C3               	clrf	??___flmul+1
  4678  0622  0DC3               	rlf	??___flmul+1,f
  4679  0623  0842               	movf	??___flmul,w
  4680  0624  3E82               	addlw	130
  4681  0625  00D2               	movwf	___flmul@temp
  4682  0626  0843               	movf	??___flmul+1,w
  4683  0627  1803               	skipnc
  4684  0628  3E01               	addlw	1
  4685  0629  3EFF               	addlw	255
  4686  062A  00D3               	movwf	___flmul@temp+1
  4687  062B  2E49               	goto	i1l2380
  4688  062C                     i1l2370:
  4689  062C  3001               	movlw	1
  4690  062D  00C2               	movwf	??___flmul
  4691  062E                     u316_25:
  4692  062E  1003               	clrc
  4693  062F  0DCE               	rlf	___flmul@prod,f
  4694  0630  0DCF               	rlf	___flmul@prod+1,f
  4695  0631  0DD0               	rlf	___flmul@prod+2,f
  4696  0632  0DD1               	rlf	___flmul@prod+3,f
  4697  0633  0BC2               	decfsz	??___flmul,f
  4698  0634  2E2E               	goto	u316_25
  4699  0635                     i1l2372:
  4700  0635  1FCB               	btfss	___flmul@grs+3,7
  4701  0636  2E38               	goto	u317_21
  4702  0637  2E39               	goto	u317_20
  4703  0638                     u317_21:
  4704  0638  2E3A               	goto	i1l2376
  4705  0639                     u317_20:
  4706  0639                     i1l2374:
  4707  0639  144E               	bsf	___flmul@prod,0
  4708  063A                     i1l2376:
  4709  063A  3001               	movlw	1
  4710  063B  00C2               	movwf	??___flmul
  4711  063C                     u318_25:
  4712  063C  1003               	clrc
  4713  063D  0DC8               	rlf	___flmul@grs,f
  4714  063E  0DC9               	rlf	___flmul@grs+1,f
  4715  063F  0DCA               	rlf	___flmul@grs+2,f
  4716  0640  0DCB               	rlf	___flmul@grs+3,f
  4717  0641  0BC2               	decfsz	??___flmul,f
  4718  0642  2E3C               	goto	u318_25
  4719  0643                     i1l2378:
  4720  0643  30FF               	movlw	255
  4721  0644  07D2               	addwf	___flmul@temp,f
  4722  0645  1803               	skipnc
  4723  0646  0AD3               	incf	___flmul@temp+1,f
  4724  0647  30FF               	movlw	255
  4725  0648  07D3               	addwf	___flmul@temp+1,f
  4726  0649                     i1l2380:
  4727  0649  1FD0               	btfss	___flmul@prod+2,7
  4728  064A  2E4C               	goto	u319_21
  4729  064B  2E4D               	goto	u319_20
  4730  064C                     u319_21:
  4731  064C  2E2C               	goto	i1l2370
  4732  064D                     u319_20:
  4733  064D                     i1l2382:
  4734  064D  01CC               	clrf	___flmul@aexp
  4735  064E                     i1l2384:
  4736  064E  1FCB               	btfss	___flmul@grs+3,7
  4737  064F  2E51               	goto	u320_21
  4738  0650  2E52               	goto	u320_20
  4739  0651                     u320_21:
  4740  0651  2E6E               	goto	i1l2392
  4741  0652                     u320_20:
  4742  0652                     i1l2386:
  4743  0652  30FF               	movlw	255
  4744  0653  0548               	andwf	___flmul@grs,w
  4745  0654  00C2               	movwf	??___flmul
  4746  0655  30FF               	movlw	255
  4747  0656  0549               	andwf	___flmul@grs+1,w
  4748  0657  00C3               	movwf	??___flmul+1
  4749  0658  30FF               	movlw	255
  4750  0659  054A               	andwf	___flmul@grs+2,w
  4751  065A  00C4               	movwf	??___flmul+2
  4752  065B  307F               	movlw	127
  4753  065C  054B               	andwf	___flmul@grs+3,w
  4754  065D  00C5               	movwf	??___flmul+3
  4755  065E  0845               	movf	??___flmul+3,w
  4756  065F  0444               	iorwf	??___flmul+2,w
  4757  0660  0443               	iorwf	??___flmul+1,w
  4758  0661  0442               	iorwf	??___flmul,w
  4759  0662  1903               	skipnz
  4760  0663  2E65               	goto	u321_21
  4761  0664  2E66               	goto	u321_20
  4762  0665                     u321_21:
  4763  0665  2E69               	goto	i1l759
  4764  0666                     u321_20:
  4765  0666                     i1l2388:
  4766  0666  01CC               	clrf	___flmul@aexp
  4767  0667  0ACC               	incf	___flmul@aexp,f
  4768  0668  2E6E               	goto	i1l2392
  4769  0669                     i1l759:
  4770  0669  1C4E               	btfss	___flmul@prod,0
  4771  066A  2E6C               	goto	u322_21
  4772  066B  2E6D               	goto	u322_20
  4773  066C                     u322_21:
  4774  066C  2E6E               	goto	i1l2392
  4775  066D                     u322_20:
  4776  066D  2E66               	goto	i1l2388
  4777  066E                     i1l2392:
  4778  066E  084C               	movf	___flmul@aexp,w
  4779  066F  1903               	btfsc	3,2
  4780  0670  2E72               	goto	u323_21
  4781  0671  2E73               	goto	u323_20
  4782  0672                     u323_21:
  4783  0672  2EA4               	goto	i1l2402
  4784  0673                     u323_20:
  4785  0673                     i1l2394:
  4786  0673  3001               	movlw	1
  4787  0674  07CE               	addwf	___flmul@prod,f
  4788  0675  3000               	movlw	0
  4789  0676  1803               	skipnc
  4790  0677  3001               	movlw	1
  4791  0678  07CF               	addwf	___flmul@prod+1,f
  4792  0679  3000               	movlw	0
  4793  067A  1803               	skipnc
  4794  067B  3001               	movlw	1
  4795  067C  07D0               	addwf	___flmul@prod+2,f
  4796  067D  3000               	movlw	0
  4797  067E  1803               	skipnc
  4798  067F  3001               	movlw	1
  4799  0680  07D1               	addwf	___flmul@prod+3,f
  4800  0681                     i1l2396:
  4801  0681  1C51               	btfss	___flmul@prod+3,0
  4802  0682  2E84               	goto	u324_21
  4803  0683  2E85               	goto	u324_20
  4804  0684                     u324_21:
  4805  0684  2EA4               	goto	i1l2402
  4806  0685                     u324_20:
  4807  0685                     i1l2398:
  4808  0685  084E               	movf	___flmul@prod,w
  4809  0686  00C2               	movwf	??___flmul
  4810  0687  084F               	movf	___flmul@prod+1,w
  4811  0688  00C3               	movwf	??___flmul+1
  4812  0689  0850               	movf	___flmul@prod+2,w
  4813  068A  00C4               	movwf	??___flmul+2
  4814  068B  0851               	movf	___flmul@prod+3,w
  4815  068C  00C5               	movwf	??___flmul+3
  4816  068D  3001               	movlw	1
  4817  068E  00C6               	movwf	??___flmul+4
  4818  068F                     u325_25:
  4819  068F  0D45               	rlf	??___flmul+3,w
  4820  0690  0CC5               	rrf	??___flmul+3,f
  4821  0691  0CC4               	rrf	??___flmul+2,f
  4822  0692  0CC3               	rrf	??___flmul+1,f
  4823  0693  0CC2               	rrf	??___flmul,f
  4824  0694                     u325_20:
  4825  0694  0BC6               	decfsz	??___flmul+4,f
  4826  0695  2E8F               	goto	u325_25
  4827  0696  0845               	movf	??___flmul+3,w
  4828  0697  00D1               	movwf	___flmul@prod+3
  4829  0698  0844               	movf	??___flmul+2,w
  4830  0699  00D0               	movwf	___flmul@prod+2
  4831  069A  0843               	movf	??___flmul+1,w
  4832  069B  00CF               	movwf	___flmul@prod+1
  4833  069C  0842               	movf	??___flmul,w
  4834  069D  00CE               	movwf	___flmul@prod
  4835  069E                     i1l2400:
  4836  069E  3001               	movlw	1
  4837  069F  07D2               	addwf	___flmul@temp,f
  4838  06A0  1803               	skipnc
  4839  06A1  0AD3               	incf	___flmul@temp+1,f
  4840  06A2  3000               	movlw	0
  4841  06A3  07D3               	addwf	___flmul@temp+1,f
  4842  06A4                     i1l2402:
  4843  06A4  0853               	movf	___flmul@temp+1,w
  4844  06A5  3A80               	xorlw	128
  4845  06A6  00FF               	movwf	btemp+1
  4846  06A7  3080               	movlw	128
  4847  06A8  027F               	subwf	btemp+1,w
  4848  06A9  1D03               	skipz
  4849  06AA  2EAD               	goto	u326_25
  4850  06AB  30FF               	movlw	255
  4851  06AC  0252               	subwf	___flmul@temp,w
  4852  06AD                     u326_25:
  4853  06AD  1C03               	skipc
  4854  06AE  2EB0               	goto	u326_21
  4855  06AF  2EB1               	goto	u326_20
  4856  06B0                     u326_21:
  4857  06B0  2EBC               	goto	i1l2406
  4858  06B1                     u326_20:
  4859  06B1                     i1l2404:
  4860  06B1  307F               	movlw	127
  4861  06B2  1283               	bcf	3,5	;RP0=0, select bank0
  4862  06B3  1303               	bcf	3,6	;RP1=0, select bank0
  4863  06B4  00D1               	movwf	___flmul@prod+3
  4864  06B5  3080               	movlw	128
  4865  06B6  00D0               	movwf	___flmul@prod+2
  4866  06B7  3000               	movlw	0
  4867  06B8  00CF               	movwf	___flmul@prod+1
  4868  06B9  3000               	movlw	0
  4869  06BA  00CE               	movwf	___flmul@prod
  4870  06BB  2EF1               	goto	i1l765
  4871  06BC                     i1l2406:
  4872  06BC  1283               	bcf	3,5	;RP0=0, select bank0
  4873  06BD  1303               	bcf	3,6	;RP1=0, select bank0
  4874  06BE  0853               	movf	___flmul@temp+1,w
  4875  06BF  3A80               	xorlw	128
  4876  06C0  00FF               	movwf	btemp+1
  4877  06C1  3080               	movlw	128
  4878  06C2  027F               	subwf	btemp+1,w
  4879  06C3  1D03               	skipz
  4880  06C4  2EC7               	goto	u327_25
  4881  06C5  3001               	movlw	1
  4882  06C6  0252               	subwf	___flmul@temp,w
  4883  06C7                     u327_25:
  4884  06C7  1803               	skipnc
  4885  06C8  2ECA               	goto	u327_21
  4886  06C9  2ECB               	goto	u327_20
  4887  06CA                     u327_21:
  4888  06CA  2ED7               	goto	i1l2412
  4889  06CB                     u327_20:
  4890  06CB                     i1l2408:
  4891  06CB  3000               	movlw	0
  4892  06CC  1283               	bcf	3,5	;RP0=0, select bank0
  4893  06CD  1303               	bcf	3,6	;RP1=0, select bank0
  4894  06CE  00D1               	movwf	___flmul@prod+3
  4895  06CF  3000               	movlw	0
  4896  06D0  00D0               	movwf	___flmul@prod+2
  4897  06D1  3000               	movlw	0
  4898  06D2  00CF               	movwf	___flmul@prod+1
  4899  06D3  3000               	movlw	0
  4900  06D4  00CE               	movwf	___flmul@prod
  4901  06D5                     i1l2410:
  4902  06D5  01C7               	clrf	___flmul@sign
  4903  06D6  2EF1               	goto	i1l765
  4904  06D7                     i1l2412:
  4905  06D7  1283               	bcf	3,5	;RP0=0, select bank0
  4906  06D8  1303               	bcf	3,6	;RP1=0, select bank0
  4907  06D9  0852               	movf	___flmul@temp,w
  4908  06DA  00C2               	movwf	??___flmul
  4909  06DB  0842               	movf	??___flmul,w
  4910  06DC  00CD               	movwf	___flmul@bexp
  4911  06DD  30FF               	movlw	255
  4912  06DE  05CE               	andwf	___flmul@prod,f
  4913  06DF  30FF               	movlw	255
  4914  06E0  05CF               	andwf	___flmul@prod+1,f
  4915  06E1  307F               	movlw	127
  4916  06E2  05D0               	andwf	___flmul@prod+2,f
  4917  06E3  3000               	movlw	0
  4918  06E4  05D1               	andwf	___flmul@prod+3,f
  4919  06E5                     i1l2414:
  4920  06E5  1C4D               	btfss	___flmul@bexp,0
  4921  06E6  2EE8               	goto	u328_21
  4922  06E7  2EE9               	goto	u328_20
  4923  06E8                     u328_21:
  4924  06E8  2EEA               	goto	i1l2418
  4925  06E9                     u328_20:
  4926  06E9                     i1l2416:
  4927  06E9  17D0               	bsf	___flmul@prod+2,7
  4928  06EA                     i1l2418:
  4929  06EA  084D               	movf	___flmul@bexp,w
  4930  06EB  00C2               	movwf	??___flmul
  4931  06EC  1003               	clrc
  4932  06ED  0C42               	rrf	??___flmul,w
  4933  06EE  00C3               	movwf	??___flmul+1
  4934  06EF  0843               	movf	??___flmul+1,w
  4935  06F0  00D1               	movwf	___flmul@prod+3
  4936  06F1                     i1l765:
  4937  06F1  0847               	movf	___flmul@sign,w
  4938  06F2  00C2               	movwf	??___flmul
  4939  06F3  0842               	movf	??___flmul,w
  4940  06F4  04D1               	iorwf	___flmul@prod+3,f
  4941  06F5                     i1l2420:
  4942  06F5  0851               	movf	___flmul@prod+3,w
  4943  06F6  00BD               	movwf	?___flmul+3
  4944  06F7  0850               	movf	___flmul@prod+2,w
  4945  06F8  00BC               	movwf	?___flmul+2
  4946  06F9  084F               	movf	___flmul@prod+1,w
  4947  06FA  00BB               	movwf	?___flmul+1
  4948  06FB  084E               	movf	___flmul@prod,w
  4949  06FC  00BA               	movwf	?___flmul
  4950  06FD                     i1l753:
  4951  06FD  0008               	return
  4952  06FE                     __end_of___flmul:
  4953                           
  4954                           	psect	text9
  4955  07B8                     __ptext9:	
  4956 ;; *************** function __Umul8_16 *****************
  4957 ;; Defined at:
  4958 ;;		line 4 in file "C:\Program Files\Microchip\xc8\v2.35\pic\sources\c90\common\Umul8_16.c"
  4959 ;; Parameters:    Size  Location     Type
  4960 ;;  multiplier      1    wreg     unsigned char 
  4961 ;;  multiplicand    1    0[COMMON] unsigned char 
  4962 ;; Auto vars:     Size  Location     Type
  4963 ;;  multiplier      1    8[COMMON] unsigned char 
  4964 ;;  word_mpld       2    6[COMMON] unsigned int 
  4965 ;;  product         2    4[COMMON] unsigned int 
  4966 ;; Return value:  Size  Location     Type
  4967 ;;                  2    0[COMMON] unsigned int 
  4968 ;; Registers used:
  4969 ;;		wreg, status,2, status,0
  4970 ;; Tracked objects:
  4971 ;;		On entry : 0/0
  4972 ;;		On exit  : 0/0
  4973 ;;		Unchanged: 0/0
  4974 ;; Data sizes:     COMMON   BANK0   BANK1   BANK3   BANK2
  4975 ;;      Params:         2       0       0       0       0
  4976 ;;      Locals:         5       0       0       0       0
  4977 ;;      Temps:          2       0       0       0       0
  4978 ;;      Totals:         9       0       0       0       0
  4979 ;;Total ram usage:        9 bytes
  4980 ;; Hardware stack levels used: 1
  4981 ;; This function calls:
  4982 ;;		Nothing
  4983 ;; This function is called by:
  4984 ;;		___flmul
  4985 ;; This function uses a non-reentrant model
  4986 ;;
  4987                           
  4988  07B8                     __Umul8_16:	
  4989                           ;psect for function __Umul8_16
  4990                           
  4991                           
  4992                           ;incstack = 0
  4993                           ; Regs used in __Umul8_16: [wreg+status,2+status,0]
  4994                           ;__Umul8_16@multiplier stored from wreg
  4995  07B8  00F8               	movwf	__Umul8_16@multiplier
  4996  07B9                     i1l1898:
  4997  07B9  01F4               	clrf	__Umul8_16@product
  4998  07BA  01F5               	clrf	__Umul8_16@product+1
  4999  07BB                     i1l1900:
  5000  07BB  0870               	movf	__Umul8_16@multiplicand,w
  5001  07BC  00F2               	movwf	??__Umul8_16
  5002  07BD  01F3               	clrf	??__Umul8_16+1
  5003  07BE  0872               	movf	??__Umul8_16,w
  5004  07BF  00F6               	movwf	__Umul8_16@word_mpld
  5005  07C0  0873               	movf	??__Umul8_16+1,w
  5006  07C1  00F7               	movwf	__Umul8_16@word_mpld+1
  5007  07C2                     i1l1902:
  5008  07C2  1C78               	btfss	__Umul8_16@multiplier,0
  5009  07C3  2FC5               	goto	u204_21
  5010  07C4  2FC6               	goto	u204_20
  5011  07C5                     u204_21:
  5012  07C5  2FCC               	goto	i1l772
  5013  07C6                     u204_20:
  5014  07C6                     i1l1904:
  5015  07C6  0876               	movf	__Umul8_16@word_mpld,w
  5016  07C7  07F4               	addwf	__Umul8_16@product,f
  5017  07C8  1803               	skipnc
  5018  07C9  0AF5               	incf	__Umul8_16@product+1,f
  5019  07CA  0877               	movf	__Umul8_16@word_mpld+1,w
  5020  07CB  07F5               	addwf	__Umul8_16@product+1,f
  5021  07CC                     i1l772:
  5022  07CC  3001               	movlw	1
  5023  07CD                     u205_25:
  5024  07CD  1003               	clrc
  5025  07CE  0DF6               	rlf	__Umul8_16@word_mpld,f
  5026  07CF  0DF7               	rlf	__Umul8_16@word_mpld+1,f
  5027  07D0  3EFF               	addlw	-1
  5028  07D1  1D03               	skipz
  5029  07D2  2FCD               	goto	u205_25
  5030  07D3  1003               	clrc
  5031  07D4  0CF8               	rrf	__Umul8_16@multiplier,f
  5032  07D5                     i1l1906:
  5033  07D5  0878               	movf	__Umul8_16@multiplier,w
  5034  07D6  1D03               	btfss	3,2
  5035  07D7  2FD9               	goto	u206_21
  5036  07D8  2FDA               	goto	u206_20
  5037  07D9                     u206_21:
  5038  07D9  2FC2               	goto	i1l1902
  5039  07DA                     u206_20:
  5040  07DA                     i1l1908:
  5041  07DA  0875               	movf	__Umul8_16@product+1,w
  5042  07DB  00F1               	movwf	?__Umul8_16+1
  5043  07DC  0874               	movf	__Umul8_16@product,w
  5044  07DD  00F0               	movwf	?__Umul8_16
  5045  07DE                     i1l774:
  5046  07DE  0008               	return
  5047  07DF                     __end_of__Umul8_16:
  5048                           
  5049                           	psect	text10
  5050  09BA                     __ptext10:	
  5051 ;; *************** function ___fldiv *****************
  5052 ;; Defined at:
  5053 ;;		line 8 in file "C:\Program Files\Microchip\xc8\v2.35\pic\sources\c90\common\sprcdiv.c"
  5054 ;; Parameters:    Size  Location     Type
  5055 ;;  a               4    0[BANK0 ] unsigned int 
  5056 ;;  b               4    4[BANK0 ] unsigned int 
  5057 ;; Auto vars:     Size  Location     Type
  5058 ;;  grs             4   20[BANK0 ] unsigned long 
  5059 ;;  rem             4   13[BANK0 ] unsigned long 
  5060 ;;  new_exp         2   18[BANK0 ] int 
  5061 ;;  aexp            1   25[BANK0 ] unsigned char 
  5062 ;;  bexp            1   24[BANK0 ] unsigned char 
  5063 ;;  sign            1   17[BANK0 ] unsigned char 
  5064 ;; Return value:  Size  Location     Type
  5065 ;;                  4    0[BANK0 ] unsigned char 
  5066 ;; Registers used:
  5067 ;;		wreg, status,2, status,0, btemp+1
  5068 ;; Tracked objects:
  5069 ;;		On entry : 0/0
  5070 ;;		On exit  : 0/0
  5071 ;;		Unchanged: 0/0
  5072 ;; Data sizes:     COMMON   BANK0   BANK1   BANK3   BANK2
  5073 ;;      Params:         0       8       0       0       0
  5074 ;;      Locals:         0      13       0       0       0
  5075 ;;      Temps:          0       5       0       0       0
  5076 ;;      Totals:         0      26       0       0       0
  5077 ;;Total ram usage:       26 bytes
  5078 ;; Hardware stack levels used: 1
  5079 ;; This function calls:
  5080 ;;		Nothing
  5081 ;; This function is called by:
  5082 ;;		_map
  5083 ;; This function uses a non-reentrant model
  5084 ;;
  5085                           
  5086  09BA                     ___fldiv:	
  5087                           ;psect for function ___fldiv
  5088                           
  5089  09BA                     i1l2142:	
  5090                           ;incstack = 0
  5091                           ; Regs used in ___fldiv: [wreg+status,2+status,0+btemp+1]
  5092                           
  5093  09BA  1283               	bcf	3,5	;RP0=0, select bank0
  5094  09BB  1303               	bcf	3,6	;RP1=0, select bank0
  5095  09BC  0827               	movf	___fldiv@b+3,w
  5096  09BD  3980               	andlw	128
  5097  09BE  00A8               	movwf	??___fldiv
  5098  09BF  0828               	movf	??___fldiv,w
  5099  09C0  00B1               	movwf	___fldiv@sign
  5100  09C1                     i1l2144:
  5101  09C1  0827               	movf	___fldiv@b+3,w
  5102  09C2  00A8               	movwf	??___fldiv
  5103  09C3  0728               	addwf	??___fldiv,w
  5104  09C4  00A9               	movwf	??___fldiv+1
  5105  09C5  0829               	movf	??___fldiv+1,w
  5106  09C6  00B8               	movwf	___fldiv@bexp
  5107  09C7                     i1l2146:
  5108  09C7  1FA6               	btfss	___fldiv@b+2,7
  5109  09C8  29CA               	goto	u263_21
  5110  09C9  29CB               	goto	u263_20
  5111  09CA                     u263_21:
  5112  09CA  29CC               	goto	i1l2150
  5113  09CB                     u263_20:
  5114  09CB                     i1l2148:
  5115  09CB  1438               	bsf	___fldiv@bexp,0
  5116  09CC                     i1l2150:
  5117  09CC  0838               	movf	___fldiv@bexp,w
  5118  09CD  1903               	btfsc	3,2
  5119  09CE  29D0               	goto	u264_21
  5120  09CF  29D1               	goto	u264_20
  5121  09D0                     u264_21:
  5122  09D0  29E1               	goto	i1l2160
  5123  09D1                     u264_20:
  5124  09D1                     i1l2152:
  5125  09D1  0A38               	incf	___fldiv@bexp,w
  5126  09D2  1D03               	btfss	3,2
  5127  09D3  29D5               	goto	u265_21
  5128  09D4  29D6               	goto	u265_20
  5129  09D5                     u265_21:
  5130  09D5  29DE               	goto	i1l2156
  5131  09D6                     u265_20:
  5132  09D6                     i1l2154:
  5133  09D6  3000               	movlw	0
  5134  09D7  00A7               	movwf	___fldiv@b+3
  5135  09D8  3000               	movlw	0
  5136  09D9  00A6               	movwf	___fldiv@b+2
  5137  09DA  3000               	movlw	0
  5138  09DB  00A5               	movwf	___fldiv@b+1
  5139  09DC  3000               	movlw	0
  5140  09DD  00A4               	movwf	___fldiv@b
  5141  09DE                     i1l2156:
  5142  09DE  17A6               	bsf	___fldiv@b+2,7
  5143  09DF                     i1l2158:
  5144  09DF  01A7               	clrf	___fldiv@b+3
  5145  09E0  29E9               	goto	i1l2162
  5146  09E1                     i1l2160:
  5147  09E1  3000               	movlw	0
  5148  09E2  00A7               	movwf	___fldiv@b+3
  5149  09E3  3000               	movlw	0
  5150  09E4  00A6               	movwf	___fldiv@b+2
  5151  09E5  3000               	movlw	0
  5152  09E6  00A5               	movwf	___fldiv@b+1
  5153  09E7  3000               	movlw	0
  5154  09E8  00A4               	movwf	___fldiv@b
  5155  09E9                     i1l2162:
  5156  09E9  0823               	movf	___fldiv@a+3,w
  5157  09EA  3980               	andlw	128
  5158  09EB  00A8               	movwf	??___fldiv
  5159  09EC  0828               	movf	??___fldiv,w
  5160  09ED  06B1               	xorwf	___fldiv@sign,f
  5161  09EE                     i1l2164:
  5162  09EE  0823               	movf	___fldiv@a+3,w
  5163  09EF  00A8               	movwf	??___fldiv
  5164  09F0  0728               	addwf	??___fldiv,w
  5165  09F1  00A9               	movwf	??___fldiv+1
  5166  09F2  0829               	movf	??___fldiv+1,w
  5167  09F3  00B9               	movwf	___fldiv@aexp
  5168  09F4                     i1l2166:
  5169  09F4  1FA2               	btfss	___fldiv@a+2,7
  5170  09F5  29F7               	goto	u266_21
  5171  09F6  29F8               	goto	u266_20
  5172  09F7                     u266_21:
  5173  09F7  29F9               	goto	i1l2170
  5174  09F8                     u266_20:
  5175  09F8                     i1l2168:
  5176  09F8  1439               	bsf	___fldiv@aexp,0
  5177  09F9                     i1l2170:
  5178  09F9  0839               	movf	___fldiv@aexp,w
  5179  09FA  1903               	btfsc	3,2
  5180  09FB  29FD               	goto	u267_21
  5181  09FC  29FE               	goto	u267_20
  5182  09FD                     u267_21:
  5183  09FD  2A0E               	goto	i1l2180
  5184  09FE                     u267_20:
  5185  09FE                     i1l2172:
  5186  09FE  0A39               	incf	___fldiv@aexp,w
  5187  09FF  1D03               	btfss	3,2
  5188  0A00  2A02               	goto	u268_21
  5189  0A01  2A03               	goto	u268_20
  5190  0A02                     u268_21:
  5191  0A02  2A0B               	goto	i1l2176
  5192  0A03                     u268_20:
  5193  0A03                     i1l2174:
  5194  0A03  3000               	movlw	0
  5195  0A04  00A3               	movwf	___fldiv@a+3
  5196  0A05  3000               	movlw	0
  5197  0A06  00A2               	movwf	___fldiv@a+2
  5198  0A07  3000               	movlw	0
  5199  0A08  00A1               	movwf	___fldiv@a+1
  5200  0A09  3000               	movlw	0
  5201  0A0A  00A0               	movwf	___fldiv@a
  5202  0A0B                     i1l2176:
  5203  0A0B  17A2               	bsf	___fldiv@a+2,7
  5204  0A0C                     i1l2178:
  5205  0A0C  01A3               	clrf	___fldiv@a+3
  5206  0A0D  2A16               	goto	i1l713
  5207  0A0E                     i1l2180:
  5208  0A0E  3000               	movlw	0
  5209  0A0F  00A3               	movwf	___fldiv@a+3
  5210  0A10  3000               	movlw	0
  5211  0A11  00A2               	movwf	___fldiv@a+2
  5212  0A12  3000               	movlw	0
  5213  0A13  00A1               	movwf	___fldiv@a+1
  5214  0A14  3000               	movlw	0
  5215  0A15  00A0               	movwf	___fldiv@a
  5216  0A16                     i1l713:
  5217  0A16  0823               	movf	___fldiv@a+3,w
  5218  0A17  0422               	iorwf	___fldiv@a+2,w
  5219  0A18  0421               	iorwf	___fldiv@a+1,w
  5220  0A19  0420               	iorwf	___fldiv@a,w
  5221  0A1A  1D03               	skipz
  5222  0A1B  2A1D               	goto	u269_21
  5223  0A1C  2A1E               	goto	u269_20
  5224  0A1D                     u269_21:
  5225  0A1D  2A37               	goto	i1l2190
  5226  0A1E                     u269_20:
  5227  0A1E                     i1l2182:
  5228  0A1E  3000               	movlw	0
  5229  0A1F  00A7               	movwf	___fldiv@b+3
  5230  0A20  3000               	movlw	0
  5231  0A21  00A6               	movwf	___fldiv@b+2
  5232  0A22  3000               	movlw	0
  5233  0A23  00A5               	movwf	___fldiv@b+1
  5234  0A24  3000               	movlw	0
  5235  0A25  00A4               	movwf	___fldiv@b
  5236  0A26  3080               	movlw	128
  5237  0A27  04A6               	iorwf	___fldiv@b+2,f
  5238  0A28  307F               	movlw	127
  5239  0A29  04A7               	iorwf	___fldiv@b+3,f
  5240  0A2A                     i1l2184:
  5241  0A2A  0831               	movf	___fldiv@sign,w
  5242  0A2B  00A8               	movwf	??___fldiv
  5243  0A2C  0828               	movf	??___fldiv,w
  5244  0A2D  04A7               	iorwf	___fldiv@b+3,f
  5245  0A2E                     i1l2186:
  5246  0A2E  0827               	movf	___fldiv@b+3,w
  5247  0A2F  00A3               	movwf	?___fldiv+3
  5248  0A30  0826               	movf	___fldiv@b+2,w
  5249  0A31  00A2               	movwf	?___fldiv+2
  5250  0A32  0825               	movf	___fldiv@b+1,w
  5251  0A33  00A1               	movwf	?___fldiv+1
  5252  0A34  0824               	movf	___fldiv@b,w
  5253  0A35  00A0               	movwf	?___fldiv
  5254  0A36  2B96               	goto	i1l715
  5255  0A37                     i1l2190:
  5256  0A37  0838               	movf	___fldiv@bexp,w
  5257  0A38  1D03               	btfss	3,2
  5258  0A39  2A3B               	goto	u270_21
  5259  0A3A  2A3C               	goto	u270_20
  5260  0A3B                     u270_21:
  5261  0A3B  2A45               	goto	i1l2196
  5262  0A3C                     u270_20:
  5263  0A3C                     i1l2192:
  5264  0A3C  3000               	movlw	0
  5265  0A3D  00A3               	movwf	?___fldiv+3
  5266  0A3E  3000               	movlw	0
  5267  0A3F  00A2               	movwf	?___fldiv+2
  5268  0A40  3000               	movlw	0
  5269  0A41  00A1               	movwf	?___fldiv+1
  5270  0A42  3000               	movlw	0
  5271  0A43  00A0               	movwf	?___fldiv
  5272  0A44  2B96               	goto	i1l715
  5273  0A45                     i1l2196:
  5274  0A45  0838               	movf	___fldiv@bexp,w
  5275  0A46  00A8               	movwf	??___fldiv
  5276  0A47  01A9               	clrf	??___fldiv+1
  5277  0A48  0829               	movf	??___fldiv+1,w
  5278  0A49  00AB               	movwf	??___fldiv+3
  5279  0A4A  0839               	movf	___fldiv@aexp,w
  5280  0A4B  0228               	subwf	??___fldiv,w
  5281  0A4C  00AA               	movwf	??___fldiv+2
  5282  0A4D  1C03               	skipc
  5283  0A4E  03AB               	decf	??___fldiv+3,f
  5284  0A4F  082A               	movf	??___fldiv+2,w
  5285  0A50  3E7F               	addlw	127
  5286  0A51  00B2               	movwf	___fldiv@new_exp
  5287  0A52  082B               	movf	??___fldiv+3,w
  5288  0A53  1803               	skipnc
  5289  0A54  3E01               	addlw	1
  5290  0A55  3E00               	addlw	0
  5291  0A56  00B3               	movwf	___fldiv@new_exp+1
  5292  0A57                     i1l2198:
  5293  0A57  0827               	movf	___fldiv@b+3,w
  5294  0A58  00B0               	movwf	___fldiv@rem+3
  5295  0A59  0826               	movf	___fldiv@b+2,w
  5296  0A5A  00AF               	movwf	___fldiv@rem+2
  5297  0A5B  0825               	movf	___fldiv@b+1,w
  5298  0A5C  00AE               	movwf	___fldiv@rem+1
  5299  0A5D  0824               	movf	___fldiv@b,w
  5300  0A5E  00AD               	movwf	___fldiv@rem
  5301  0A5F                     i1l2200:
  5302  0A5F  3000               	movlw	0
  5303  0A60  00A7               	movwf	___fldiv@b+3
  5304  0A61  3000               	movlw	0
  5305  0A62  00A6               	movwf	___fldiv@b+2
  5306  0A63  3000               	movlw	0
  5307  0A64  00A5               	movwf	___fldiv@b+1
  5308  0A65  3000               	movlw	0
  5309  0A66  00A4               	movwf	___fldiv@b
  5310  0A67                     i1l2202:
  5311  0A67  3000               	movlw	0
  5312  0A68  00B7               	movwf	___fldiv@grs+3
  5313  0A69  3000               	movlw	0
  5314  0A6A  00B6               	movwf	___fldiv@grs+2
  5315  0A6B  3000               	movlw	0
  5316  0A6C  00B5               	movwf	___fldiv@grs+1
  5317  0A6D  3000               	movlw	0
  5318  0A6E  00B4               	movwf	___fldiv@grs
  5319  0A6F                     i1l2204:
  5320  0A6F  01B9               	clrf	___fldiv@aexp
  5321  0A70  2ABB               	goto	i1l2224
  5322  0A71                     i1l2206:
  5323  0A71  0839               	movf	___fldiv@aexp,w
  5324  0A72  1903               	btfsc	3,2
  5325  0A73  2A75               	goto	u271_21
  5326  0A74  2A76               	goto	u271_20
  5327  0A75                     u271_21:
  5328  0A75  2A96               	goto	i1l2216
  5329  0A76                     u271_20:
  5330  0A76                     i1l2208:
  5331  0A76  3001               	movlw	1
  5332  0A77  00A8               	movwf	??___fldiv
  5333  0A78                     u272_25:
  5334  0A78  1003               	clrc
  5335  0A79  0DAD               	rlf	___fldiv@rem,f
  5336  0A7A  0DAE               	rlf	___fldiv@rem+1,f
  5337  0A7B  0DAF               	rlf	___fldiv@rem+2,f
  5338  0A7C  0DB0               	rlf	___fldiv@rem+3,f
  5339  0A7D  0BA8               	decfsz	??___fldiv,f
  5340  0A7E  2A78               	goto	u272_25
  5341  0A7F  3001               	movlw	1
  5342  0A80  00A8               	movwf	??___fldiv
  5343  0A81                     u273_25:
  5344  0A81  1003               	clrc
  5345  0A82  0DA4               	rlf	___fldiv@b,f
  5346  0A83  0DA5               	rlf	___fldiv@b+1,f
  5347  0A84  0DA6               	rlf	___fldiv@b+2,f
  5348  0A85  0DA7               	rlf	___fldiv@b+3,f
  5349  0A86  0BA8               	decfsz	??___fldiv,f
  5350  0A87  2A81               	goto	u273_25
  5351  0A88                     i1l2210:
  5352  0A88  1FB7               	btfss	___fldiv@grs+3,7
  5353  0A89  2A8B               	goto	u274_21
  5354  0A8A  2A8C               	goto	u274_20
  5355  0A8B                     u274_21:
  5356  0A8B  2A8D               	goto	i1l2214
  5357  0A8C                     u274_20:
  5358  0A8C                     i1l2212:
  5359  0A8C  1424               	bsf	___fldiv@b,0
  5360  0A8D                     i1l2214:
  5361  0A8D  3001               	movlw	1
  5362  0A8E  00A8               	movwf	??___fldiv
  5363  0A8F                     u275_25:
  5364  0A8F  1003               	clrc
  5365  0A90  0DB4               	rlf	___fldiv@grs,f
  5366  0A91  0DB5               	rlf	___fldiv@grs+1,f
  5367  0A92  0DB6               	rlf	___fldiv@grs+2,f
  5368  0A93  0DB7               	rlf	___fldiv@grs+3,f
  5369  0A94  0BA8               	decfsz	??___fldiv,f
  5370  0A95  2A8F               	goto	u275_25
  5371  0A96                     i1l2216:
  5372  0A96  0823               	movf	___fldiv@a+3,w
  5373  0A97  0230               	subwf	___fldiv@rem+3,w
  5374  0A98  1D03               	skipz
  5375  0A99  2AA4               	goto	u276_25
  5376  0A9A  0822               	movf	___fldiv@a+2,w
  5377  0A9B  022F               	subwf	___fldiv@rem+2,w
  5378  0A9C  1D03               	skipz
  5379  0A9D  2AA4               	goto	u276_25
  5380  0A9E  0821               	movf	___fldiv@a+1,w
  5381  0A9F  022E               	subwf	___fldiv@rem+1,w
  5382  0AA0  1D03               	skipz
  5383  0AA1  2AA4               	goto	u276_25
  5384  0AA2  0820               	movf	___fldiv@a,w
  5385  0AA3  022D               	subwf	___fldiv@rem,w
  5386  0AA4                     u276_25:
  5387  0AA4  1C03               	skipc
  5388  0AA5  2AA7               	goto	u276_21
  5389  0AA6  2AA8               	goto	u276_20
  5390  0AA7                     u276_21:
  5391  0AA7  2AB7               	goto	i1l2222
  5392  0AA8                     u276_20:
  5393  0AA8                     i1l2218:
  5394  0AA8  1737               	bsf	___fldiv@grs+3,6
  5395  0AA9                     i1l2220:
  5396  0AA9  0820               	movf	___fldiv@a,w
  5397  0AAA  02AD               	subwf	___fldiv@rem,f
  5398  0AAB  0821               	movf	___fldiv@a+1,w
  5399  0AAC  1C03               	skipc
  5400  0AAD  0F21               	incfsz	___fldiv@a+1,w
  5401  0AAE  02AE               	subwf	___fldiv@rem+1,f
  5402  0AAF  0822               	movf	___fldiv@a+2,w
  5403  0AB0  1C03               	skipc
  5404  0AB1  0F22               	incfsz	___fldiv@a+2,w
  5405  0AB2  02AF               	subwf	___fldiv@rem+2,f
  5406  0AB3  0823               	movf	___fldiv@a+3,w
  5407  0AB4  1C03               	skipc
  5408  0AB5  0F23               	incfsz	___fldiv@a+3,w
  5409  0AB6  02B0               	subwf	___fldiv@rem+3,f
  5410  0AB7                     i1l2222:
  5411  0AB7  3001               	movlw	1
  5412  0AB8  00A8               	movwf	??___fldiv
  5413  0AB9  0828               	movf	??___fldiv,w
  5414  0ABA  07B9               	addwf	___fldiv@aexp,f
  5415  0ABB                     i1l2224:
  5416  0ABB  301A               	movlw	26
  5417  0ABC  0239               	subwf	___fldiv@aexp,w
  5418  0ABD  1C03               	skipc
  5419  0ABE  2AC0               	goto	u277_21
  5420  0ABF  2AC1               	goto	u277_20
  5421  0AC0                     u277_21:
  5422  0AC0  2A71               	goto	i1l2206
  5423  0AC1                     u277_20:
  5424  0AC1                     i1l2226:
  5425  0AC1  0830               	movf	___fldiv@rem+3,w
  5426  0AC2  042F               	iorwf	___fldiv@rem+2,w
  5427  0AC3  042E               	iorwf	___fldiv@rem+1,w
  5428  0AC4  042D               	iorwf	___fldiv@rem,w
  5429  0AC5  1903               	skipnz
  5430  0AC6  2AC8               	goto	u278_21
  5431  0AC7  2AC9               	goto	u278_20
  5432  0AC8                     u278_21:
  5433  0AC8  2AE8               	goto	i1l2240
  5434  0AC9                     u278_20:
  5435  0AC9                     i1l2228:
  5436  0AC9  1434               	bsf	___fldiv@grs,0
  5437  0ACA  2AE8               	goto	i1l2240
  5438  0ACB                     i1l2230:
  5439  0ACB  3001               	movlw	1
  5440  0ACC  00A8               	movwf	??___fldiv
  5441  0ACD                     u279_25:
  5442  0ACD  1003               	clrc
  5443  0ACE  0DA4               	rlf	___fldiv@b,f
  5444  0ACF  0DA5               	rlf	___fldiv@b+1,f
  5445  0AD0  0DA6               	rlf	___fldiv@b+2,f
  5446  0AD1  0DA7               	rlf	___fldiv@b+3,f
  5447  0AD2  0BA8               	decfsz	??___fldiv,f
  5448  0AD3  2ACD               	goto	u279_25
  5449  0AD4                     i1l2232:
  5450  0AD4  1FB7               	btfss	___fldiv@grs+3,7
  5451  0AD5  2AD7               	goto	u280_21
  5452  0AD6  2AD8               	goto	u280_20
  5453  0AD7                     u280_21:
  5454  0AD7  2AD9               	goto	i1l2236
  5455  0AD8                     u280_20:
  5456  0AD8                     i1l2234:
  5457  0AD8  1424               	bsf	___fldiv@b,0
  5458  0AD9                     i1l2236:
  5459  0AD9  3001               	movlw	1
  5460  0ADA  00A8               	movwf	??___fldiv
  5461  0ADB                     u281_25:
  5462  0ADB  1003               	clrc
  5463  0ADC  0DB4               	rlf	___fldiv@grs,f
  5464  0ADD  0DB5               	rlf	___fldiv@grs+1,f
  5465  0ADE  0DB6               	rlf	___fldiv@grs+2,f
  5466  0ADF  0DB7               	rlf	___fldiv@grs+3,f
  5467  0AE0  0BA8               	decfsz	??___fldiv,f
  5468  0AE1  2ADB               	goto	u281_25
  5469  0AE2                     i1l2238:
  5470  0AE2  30FF               	movlw	255
  5471  0AE3  07B2               	addwf	___fldiv@new_exp,f
  5472  0AE4  1803               	skipnc
  5473  0AE5  0AB3               	incf	___fldiv@new_exp+1,f
  5474  0AE6  30FF               	movlw	255
  5475  0AE7  07B3               	addwf	___fldiv@new_exp+1,f
  5476  0AE8                     i1l2240:
  5477  0AE8  1FA6               	btfss	___fldiv@b+2,7
  5478  0AE9  2AEB               	goto	u282_21
  5479  0AEA  2AEC               	goto	u282_20
  5480  0AEB                     u282_21:
  5481  0AEB  2ACB               	goto	i1l2230
  5482  0AEC                     u282_20:
  5483  0AEC                     i1l2242:
  5484  0AEC  01B9               	clrf	___fldiv@aexp
  5485  0AED                     i1l2244:
  5486  0AED  1FB7               	btfss	___fldiv@grs+3,7
  5487  0AEE  2AF0               	goto	u283_21
  5488  0AEF  2AF1               	goto	u283_20
  5489  0AF0                     u283_21:
  5490  0AF0  2B0D               	goto	i1l2252
  5491  0AF1                     u283_20:
  5492  0AF1                     i1l2246:
  5493  0AF1  30FF               	movlw	255
  5494  0AF2  0534               	andwf	___fldiv@grs,w
  5495  0AF3  00A8               	movwf	??___fldiv
  5496  0AF4  30FF               	movlw	255
  5497  0AF5  0535               	andwf	___fldiv@grs+1,w
  5498  0AF6  00A9               	movwf	??___fldiv+1
  5499  0AF7  30FF               	movlw	255
  5500  0AF8  0536               	andwf	___fldiv@grs+2,w
  5501  0AF9  00AA               	movwf	??___fldiv+2
  5502  0AFA  307F               	movlw	127
  5503  0AFB  0537               	andwf	___fldiv@grs+3,w
  5504  0AFC  00AB               	movwf	??___fldiv+3
  5505  0AFD  082B               	movf	??___fldiv+3,w
  5506  0AFE  042A               	iorwf	??___fldiv+2,w
  5507  0AFF  0429               	iorwf	??___fldiv+1,w
  5508  0B00  0428               	iorwf	??___fldiv,w
  5509  0B01  1903               	skipnz
  5510  0B02  2B04               	goto	u284_21
  5511  0B03  2B05               	goto	u284_20
  5512  0B04                     u284_21:
  5513  0B04  2B08               	goto	i1l729
  5514  0B05                     u284_20:
  5515  0B05                     i1l2248:
  5516  0B05  01B9               	clrf	___fldiv@aexp
  5517  0B06  0AB9               	incf	___fldiv@aexp,f
  5518  0B07  2B0D               	goto	i1l2252
  5519  0B08                     i1l729:
  5520  0B08  1C24               	btfss	___fldiv@b,0
  5521  0B09  2B0B               	goto	u285_21
  5522  0B0A  2B0C               	goto	u285_20
  5523  0B0B                     u285_21:
  5524  0B0B  2B0D               	goto	i1l2252
  5525  0B0C                     u285_20:
  5526  0B0C  2B05               	goto	i1l2248
  5527  0B0D                     i1l2252:
  5528  0B0D  0839               	movf	___fldiv@aexp,w
  5529  0B0E  1903               	btfsc	3,2
  5530  0B0F  2B11               	goto	u286_21
  5531  0B10  2B12               	goto	u286_20
  5532  0B11                     u286_21:
  5533  0B11  2B43               	goto	i1l2262
  5534  0B12                     u286_20:
  5535  0B12                     i1l2254:
  5536  0B12  3001               	movlw	1
  5537  0B13  07A4               	addwf	___fldiv@b,f
  5538  0B14  3000               	movlw	0
  5539  0B15  1803               	skipnc
  5540  0B16  3001               	movlw	1
  5541  0B17  07A5               	addwf	___fldiv@b+1,f
  5542  0B18  3000               	movlw	0
  5543  0B19  1803               	skipnc
  5544  0B1A  3001               	movlw	1
  5545  0B1B  07A6               	addwf	___fldiv@b+2,f
  5546  0B1C  3000               	movlw	0
  5547  0B1D  1803               	skipnc
  5548  0B1E  3001               	movlw	1
  5549  0B1F  07A7               	addwf	___fldiv@b+3,f
  5550  0B20                     i1l2256:
  5551  0B20  1C27               	btfss	___fldiv@b+3,0
  5552  0B21  2B23               	goto	u287_21
  5553  0B22  2B24               	goto	u287_20
  5554  0B23                     u287_21:
  5555  0B23  2B43               	goto	i1l2262
  5556  0B24                     u287_20:
  5557  0B24                     i1l2258:
  5558  0B24  0824               	movf	___fldiv@b,w
  5559  0B25  00A8               	movwf	??___fldiv
  5560  0B26  0825               	movf	___fldiv@b+1,w
  5561  0B27  00A9               	movwf	??___fldiv+1
  5562  0B28  0826               	movf	___fldiv@b+2,w
  5563  0B29  00AA               	movwf	??___fldiv+2
  5564  0B2A  0827               	movf	___fldiv@b+3,w
  5565  0B2B  00AB               	movwf	??___fldiv+3
  5566  0B2C  3001               	movlw	1
  5567  0B2D  00AC               	movwf	??___fldiv+4
  5568  0B2E                     u288_25:
  5569  0B2E  0D2B               	rlf	??___fldiv+3,w
  5570  0B2F  0CAB               	rrf	??___fldiv+3,f
  5571  0B30  0CAA               	rrf	??___fldiv+2,f
  5572  0B31  0CA9               	rrf	??___fldiv+1,f
  5573  0B32  0CA8               	rrf	??___fldiv,f
  5574  0B33                     u288_20:
  5575  0B33  0BAC               	decfsz	??___fldiv+4,f
  5576  0B34  2B2E               	goto	u288_25
  5577  0B35  082B               	movf	??___fldiv+3,w
  5578  0B36  00A7               	movwf	___fldiv@b+3
  5579  0B37  082A               	movf	??___fldiv+2,w
  5580  0B38  00A6               	movwf	___fldiv@b+2
  5581  0B39  0829               	movf	??___fldiv+1,w
  5582  0B3A  00A5               	movwf	___fldiv@b+1
  5583  0B3B  0828               	movf	??___fldiv,w
  5584  0B3C  00A4               	movwf	___fldiv@b
  5585  0B3D                     i1l2260:
  5586  0B3D  3001               	movlw	1
  5587  0B3E  07B2               	addwf	___fldiv@new_exp,f
  5588  0B3F  1803               	skipnc
  5589  0B40  0AB3               	incf	___fldiv@new_exp+1,f
  5590  0B41  3000               	movlw	0
  5591  0B42  07B3               	addwf	___fldiv@new_exp+1,f
  5592  0B43                     i1l2262:
  5593  0B43  0833               	movf	___fldiv@new_exp+1,w
  5594  0B44  3A80               	xorlw	128
  5595  0B45  00FF               	movwf	btemp+1
  5596  0B46  3080               	movlw	128
  5597  0B47  027F               	subwf	btemp+1,w
  5598  0B48  1D03               	skipz
  5599  0B49  2B4C               	goto	u289_25
  5600  0B4A  30FF               	movlw	255
  5601  0B4B  0232               	subwf	___fldiv@new_exp,w
  5602  0B4C                     u289_25:
  5603  0B4C  1C03               	skipc
  5604  0B4D  2B4F               	goto	u289_21
  5605  0B4E  2B50               	goto	u289_20
  5606  0B4F                     u289_21:
  5607  0B4F  2B5E               	goto	i1l2266
  5608  0B50                     u289_20:
  5609  0B50                     i1l2264:
  5610  0B50  30FF               	movlw	255
  5611  0B51  1283               	bcf	3,5	;RP0=0, select bank0
  5612  0B52  1303               	bcf	3,6	;RP1=0, select bank0
  5613  0B53  00B2               	movwf	___fldiv@new_exp
  5614  0B54  3000               	movlw	0
  5615  0B55  00B3               	movwf	___fldiv@new_exp+1
  5616  0B56  3000               	movlw	0
  5617  0B57  00A7               	movwf	___fldiv@b+3
  5618  0B58  3000               	movlw	0
  5619  0B59  00A6               	movwf	___fldiv@b+2
  5620  0B5A  3000               	movlw	0
  5621  0B5B  00A5               	movwf	___fldiv@b+1
  5622  0B5C  3000               	movlw	0
  5623  0B5D  00A4               	movwf	___fldiv@b
  5624  0B5E                     i1l2266:
  5625  0B5E  1283               	bcf	3,5	;RP0=0, select bank0
  5626  0B5F  1303               	bcf	3,6	;RP1=0, select bank0
  5627  0B60  0833               	movf	___fldiv@new_exp+1,w
  5628  0B61  3A80               	xorlw	128
  5629  0B62  00FF               	movwf	btemp+1
  5630  0B63  3080               	movlw	128
  5631  0B64  027F               	subwf	btemp+1,w
  5632  0B65  1D03               	skipz
  5633  0B66  2B69               	goto	u290_25
  5634  0B67  3001               	movlw	1
  5635  0B68  0232               	subwf	___fldiv@new_exp,w
  5636  0B69                     u290_25:
  5637  0B69  1803               	skipnc
  5638  0B6A  2B6C               	goto	u290_21
  5639  0B6B  2B6D               	goto	u290_20
  5640  0B6C                     u290_21:
  5641  0B6C  2B7A               	goto	i1l735
  5642  0B6D                     u290_20:
  5643  0B6D                     i1l2268:
  5644  0B6D  1283               	bcf	3,5	;RP0=0, select bank0
  5645  0B6E  1303               	bcf	3,6	;RP1=0, select bank0
  5646  0B6F  01B2               	clrf	___fldiv@new_exp
  5647  0B70  01B3               	clrf	___fldiv@new_exp+1
  5648  0B71                     i1l2270:
  5649  0B71  3000               	movlw	0
  5650  0B72  00A7               	movwf	___fldiv@b+3
  5651  0B73  3000               	movlw	0
  5652  0B74  00A6               	movwf	___fldiv@b+2
  5653  0B75  3000               	movlw	0
  5654  0B76  00A5               	movwf	___fldiv@b+1
  5655  0B77  3000               	movlw	0
  5656  0B78  00A4               	movwf	___fldiv@b
  5657  0B79                     i1l2272:
  5658  0B79  01B1               	clrf	___fldiv@sign
  5659  0B7A                     i1l735:
  5660  0B7A  1283               	bcf	3,5	;RP0=0, select bank0
  5661  0B7B  1303               	bcf	3,6	;RP1=0, select bank0
  5662  0B7C  0832               	movf	___fldiv@new_exp,w
  5663  0B7D  00A8               	movwf	??___fldiv
  5664  0B7E  0828               	movf	??___fldiv,w
  5665  0B7F  00B8               	movwf	___fldiv@bexp
  5666  0B80                     i1l2274:
  5667  0B80  1C38               	btfss	___fldiv@bexp,0
  5668  0B81  2B83               	goto	u291_21
  5669  0B82  2B84               	goto	u291_20
  5670  0B83                     u291_21:
  5671  0B83  2B86               	goto	i1l2278
  5672  0B84                     u291_20:
  5673  0B84                     i1l2276:
  5674  0B84  17A6               	bsf	___fldiv@b+2,7
  5675  0B85  2B8A               	goto	i1l737
  5676  0B86                     i1l2278:
  5677  0B86  307F               	movlw	127
  5678  0B87  00A8               	movwf	??___fldiv
  5679  0B88  0828               	movf	??___fldiv,w
  5680  0B89  05A6               	andwf	___fldiv@b+2,f
  5681  0B8A                     i1l737:
  5682  0B8A  0838               	movf	___fldiv@bexp,w
  5683  0B8B  00A8               	movwf	??___fldiv
  5684  0B8C  1003               	clrc
  5685  0B8D  0C28               	rrf	??___fldiv,w
  5686  0B8E  00A9               	movwf	??___fldiv+1
  5687  0B8F  0829               	movf	??___fldiv+1,w
  5688  0B90  00A7               	movwf	___fldiv@b+3
  5689  0B91  0831               	movf	___fldiv@sign,w
  5690  0B92  00A8               	movwf	??___fldiv
  5691  0B93  0828               	movf	??___fldiv,w
  5692  0B94  04A7               	iorwf	___fldiv@b+3,f
  5693  0B95  2A2E               	goto	i1l2186
  5694  0B96                     i1l715:
  5695  0B96  0008               	return
  5696  0B97                     __end_of___fldiv:
  5697                           
  5698                           	psect	text11
  5699  0D78                     __ptext11:	
  5700 ;; *************** function ___fladd *****************
  5701 ;; Defined at:
  5702 ;;		line 10 in file "C:\Program Files\Microchip\xc8\v2.35\pic\sources\c90\common\sprcadd.c"
  5703 ;; Parameters:    Size  Location     Type
  5704 ;;  b               4   52[BANK0 ] unsigned char 
  5705 ;;  a               4   56[BANK0 ] unsigned char 
  5706 ;; Auto vars:     Size  Location     Type
  5707 ;;  grs             1   71[BANK0 ] unsigned char 
  5708 ;;  bexp            1   70[BANK0 ] unsigned char 
  5709 ;;  aexp            1   69[BANK0 ] unsigned char 
  5710 ;;  signs           1   68[BANK0 ] unsigned char 
  5711 ;; Return value:  Size  Location     Type
  5712 ;;                  4   52[BANK0 ] unsigned char 
  5713 ;; Registers used:
  5714 ;;		wreg, status,2, status,0, btemp+1
  5715 ;; Tracked objects:
  5716 ;;		On entry : 0/0
  5717 ;;		On exit  : 0/0
  5718 ;;		Unchanged: 0/0
  5719 ;; Data sizes:     COMMON   BANK0   BANK1   BANK3   BANK2
  5720 ;;      Params:         0       8       0       0       0
  5721 ;;      Locals:         0       4       0       0       0
  5722 ;;      Temps:          0       8       0       0       0
  5723 ;;      Totals:         0      20       0       0       0
  5724 ;;Total ram usage:       20 bytes
  5725 ;; Hardware stack levels used: 1
  5726 ;; This function calls:
  5727 ;;		Nothing
  5728 ;; This function is called by:
  5729 ;;		_map
  5730 ;; This function uses a non-reentrant model
  5731 ;;
  5732                           
  5733  0D78                     ___fladd:	
  5734                           ;psect for function ___fladd
  5735                           
  5736  0D78                     i1l1948:	
  5737                           ;incstack = 0
  5738                           ; Regs used in ___fladd: [wreg+status,2+status,0+btemp+1]
  5739                           
  5740  0D78  1283               	bcf	3,5	;RP0=0, select bank0
  5741  0D79  1303               	bcf	3,6	;RP1=0, select bank0
  5742  0D7A  0857               	movf	___fladd@b+3,w
  5743  0D7B  3980               	andlw	128
  5744  0D7C  00DC               	movwf	??___fladd
  5745  0D7D  085C               	movf	??___fladd,w
  5746  0D7E  00E4               	movwf	___fladd@signs
  5747  0D7F                     i1l1950:
  5748  0D7F  0857               	movf	___fladd@b+3,w
  5749  0D80  00DC               	movwf	??___fladd
  5750  0D81  075C               	addwf	??___fladd,w
  5751  0D82  00DD               	movwf	??___fladd+1
  5752  0D83  085D               	movf	??___fladd+1,w
  5753  0D84  00E6               	movwf	___fladd@bexp
  5754  0D85                     i1l1952:
  5755  0D85  1FD6               	btfss	___fladd@b+2,7
  5756  0D86  2D88               	goto	u217_21
  5757  0D87  2D89               	goto	u217_20
  5758  0D88                     u217_21:
  5759  0D88  2D8A               	goto	i1l1956
  5760  0D89                     u217_20:
  5761  0D89                     i1l1954:
  5762  0D89  1466               	bsf	___fladd@bexp,0
  5763  0D8A                     i1l1956:
  5764  0D8A  0866               	movf	___fladd@bexp,w
  5765  0D8B  1903               	btfsc	3,2
  5766  0D8C  2D8E               	goto	u218_21
  5767  0D8D  2D8F               	goto	u218_20
  5768  0D8E                     u218_21:
  5769  0D8E  2D9F               	goto	i1l1966
  5770  0D8F                     u218_20:
  5771  0D8F                     i1l1958:
  5772  0D8F  0A66               	incf	___fladd@bexp,w
  5773  0D90  1D03               	btfss	3,2
  5774  0D91  2D93               	goto	u219_21
  5775  0D92  2D94               	goto	u219_20
  5776  0D93                     u219_21:
  5777  0D93  2D9C               	goto	i1l1962
  5778  0D94                     u219_20:
  5779  0D94                     i1l1960:
  5780  0D94  3000               	movlw	0
  5781  0D95  00D7               	movwf	___fladd@b+3
  5782  0D96  3000               	movlw	0
  5783  0D97  00D6               	movwf	___fladd@b+2
  5784  0D98  3000               	movlw	0
  5785  0D99  00D5               	movwf	___fladd@b+1
  5786  0D9A  3000               	movlw	0
  5787  0D9B  00D4               	movwf	___fladd@b
  5788  0D9C                     i1l1962:
  5789  0D9C  17D6               	bsf	___fladd@b+2,7
  5790  0D9D                     i1l1964:
  5791  0D9D  01D7               	clrf	___fladd@b+3
  5792  0D9E  2DA7               	goto	i1l1968
  5793  0D9F                     i1l1966:
  5794  0D9F  3000               	movlw	0
  5795  0DA0  00D7               	movwf	___fladd@b+3
  5796  0DA1  3000               	movlw	0
  5797  0DA2  00D6               	movwf	___fladd@b+2
  5798  0DA3  3000               	movlw	0
  5799  0DA4  00D5               	movwf	___fladd@b+1
  5800  0DA5  3000               	movlw	0
  5801  0DA6  00D4               	movwf	___fladd@b
  5802  0DA7                     i1l1968:
  5803  0DA7  085B               	movf	___fladd@a+3,w
  5804  0DA8  3980               	andlw	128
  5805  0DA9  00DC               	movwf	??___fladd
  5806  0DAA  085C               	movf	??___fladd,w
  5807  0DAB  00E5               	movwf	___fladd@aexp
  5808  0DAC                     i1l1970:
  5809  0DAC  0865               	movf	___fladd@aexp,w
  5810  0DAD  0664               	xorwf	___fladd@signs,w
  5811  0DAE  1903               	skipnz
  5812  0DAF  2DB1               	goto	u220_21
  5813  0DB0  2DB2               	goto	u220_20
  5814  0DB1                     u220_21:
  5815  0DB1  2DB3               	goto	i1l1974
  5816  0DB2                     u220_20:
  5817  0DB2                     i1l1972:
  5818  0DB2  1764               	bsf	___fladd@signs,6
  5819  0DB3                     i1l1974:
  5820  0DB3  085B               	movf	___fladd@a+3,w
  5821  0DB4  00DC               	movwf	??___fladd
  5822  0DB5  075C               	addwf	??___fladd,w
  5823  0DB6  00DD               	movwf	??___fladd+1
  5824  0DB7  085D               	movf	??___fladd+1,w
  5825  0DB8  00E5               	movwf	___fladd@aexp
  5826  0DB9                     i1l1976:
  5827  0DB9  1FDA               	btfss	___fladd@a+2,7
  5828  0DBA  2DBC               	goto	u221_21
  5829  0DBB  2DBD               	goto	u221_20
  5830  0DBC                     u221_21:
  5831  0DBC  2DBE               	goto	i1l1980
  5832  0DBD                     u221_20:
  5833  0DBD                     i1l1978:
  5834  0DBD  1465               	bsf	___fladd@aexp,0
  5835  0DBE                     i1l1980:
  5836  0DBE  0865               	movf	___fladd@aexp,w
  5837  0DBF  1903               	btfsc	3,2
  5838  0DC0  2DC2               	goto	u222_21
  5839  0DC1  2DC3               	goto	u222_20
  5840  0DC2                     u222_21:
  5841  0DC2  2DD3               	goto	i1l1990
  5842  0DC3                     u222_20:
  5843  0DC3                     i1l1982:
  5844  0DC3  0A65               	incf	___fladd@aexp,w
  5845  0DC4  1D03               	btfss	3,2
  5846  0DC5  2DC7               	goto	u223_21
  5847  0DC6  2DC8               	goto	u223_20
  5848  0DC7                     u223_21:
  5849  0DC7  2DD0               	goto	i1l1986
  5850  0DC8                     u223_20:
  5851  0DC8                     i1l1984:
  5852  0DC8  3000               	movlw	0
  5853  0DC9  00DB               	movwf	___fladd@a+3
  5854  0DCA  3000               	movlw	0
  5855  0DCB  00DA               	movwf	___fladd@a+2
  5856  0DCC  3000               	movlw	0
  5857  0DCD  00D9               	movwf	___fladd@a+1
  5858  0DCE  3000               	movlw	0
  5859  0DCF  00D8               	movwf	___fladd@a
  5860  0DD0                     i1l1986:
  5861  0DD0  17DA               	bsf	___fladd@a+2,7
  5862  0DD1                     i1l1988:
  5863  0DD1  01DB               	clrf	___fladd@a+3
  5864  0DD2  2DDB               	goto	i1l657
  5865  0DD3                     i1l1990:
  5866  0DD3  3000               	movlw	0
  5867  0DD4  00DB               	movwf	___fladd@a+3
  5868  0DD5  3000               	movlw	0
  5869  0DD6  00DA               	movwf	___fladd@a+2
  5870  0DD7  3000               	movlw	0
  5871  0DD8  00D9               	movwf	___fladd@a+1
  5872  0DD9  3000               	movlw	0
  5873  0DDA  00D8               	movwf	___fladd@a
  5874  0DDB                     i1l657:
  5875  0DDB  0866               	movf	___fladd@bexp,w
  5876  0DDC  0265               	subwf	___fladd@aexp,w
  5877  0DDD  1803               	skipnc
  5878  0DDE  2DE0               	goto	u224_21
  5879  0DDF  2DE1               	goto	u224_20
  5880  0DE0                     u224_21:
  5881  0DE0  2E25               	goto	i1l2026
  5882  0DE1                     u224_20:
  5883  0DE1                     i1l1992:
  5884  0DE1  1F64               	btfss	___fladd@signs,6
  5885  0DE2  2DE4               	goto	u225_21
  5886  0DE3  2DE5               	goto	u225_20
  5887  0DE4                     u225_21:
  5888  0DE4  2DE9               	goto	i1l1996
  5889  0DE5                     u225_20:
  5890  0DE5                     i1l1994:
  5891  0DE5  3080               	movlw	128
  5892  0DE6  00DC               	movwf	??___fladd
  5893  0DE7  085C               	movf	??___fladd,w
  5894  0DE8  06E4               	xorwf	___fladd@signs,f
  5895  0DE9                     i1l1996:
  5896  0DE9  0866               	movf	___fladd@bexp,w
  5897  0DEA  00DC               	movwf	??___fladd
  5898  0DEB  085C               	movf	??___fladd,w
  5899  0DEC  00E7               	movwf	___fladd@grs
  5900  0DED                     i1l1998:
  5901  0DED  0865               	movf	___fladd@aexp,w
  5902  0DEE  00DC               	movwf	??___fladd
  5903  0DEF  085C               	movf	??___fladd,w
  5904  0DF0  00E6               	movwf	___fladd@bexp
  5905  0DF1                     i1l2000:
  5906  0DF1  0867               	movf	___fladd@grs,w
  5907  0DF2  00DC               	movwf	??___fladd
  5908  0DF3  085C               	movf	??___fladd,w
  5909  0DF4  00E5               	movwf	___fladd@aexp
  5910  0DF5                     i1l2002:
  5911  0DF5  0854               	movf	___fladd@b,w
  5912  0DF6  00DC               	movwf	??___fladd
  5913  0DF7  085C               	movf	??___fladd,w
  5914  0DF8  00E7               	movwf	___fladd@grs
  5915  0DF9                     i1l2004:
  5916  0DF9  0858               	movf	___fladd@a,w
  5917  0DFA  00DC               	movwf	??___fladd
  5918  0DFB  085C               	movf	??___fladd,w
  5919  0DFC  00D4               	movwf	___fladd@b
  5920  0DFD                     i1l2006:
  5921  0DFD  0867               	movf	___fladd@grs,w
  5922  0DFE  00DC               	movwf	??___fladd
  5923  0DFF  085C               	movf	??___fladd,w
  5924  0E00  00D8               	movwf	___fladd@a
  5925  0E01                     i1l2008:
  5926  0E01  0855               	movf	___fladd@b+1,w
  5927  0E02  00DC               	movwf	??___fladd
  5928  0E03  085C               	movf	??___fladd,w
  5929  0E04  00E7               	movwf	___fladd@grs
  5930  0E05                     i1l2010:
  5931  0E05  0859               	movf	___fladd@a+1,w
  5932  0E06  00DC               	movwf	??___fladd
  5933  0E07  085C               	movf	??___fladd,w
  5934  0E08  00D5               	movwf	___fladd@b+1
  5935  0E09                     i1l2012:
  5936  0E09  0867               	movf	___fladd@grs,w
  5937  0E0A  00DC               	movwf	??___fladd
  5938  0E0B  085C               	movf	??___fladd,w
  5939  0E0C  00D9               	movwf	___fladd@a+1
  5940  0E0D                     i1l2014:
  5941  0E0D  0856               	movf	___fladd@b+2,w
  5942  0E0E  00DC               	movwf	??___fladd
  5943  0E0F  085C               	movf	??___fladd,w
  5944  0E10  00E7               	movwf	___fladd@grs
  5945  0E11                     i1l2016:
  5946  0E11  085A               	movf	___fladd@a+2,w
  5947  0E12  00DC               	movwf	??___fladd
  5948  0E13  085C               	movf	??___fladd,w
  5949  0E14  00D6               	movwf	___fladd@b+2
  5950  0E15                     i1l2018:
  5951  0E15  0867               	movf	___fladd@grs,w
  5952  0E16  00DC               	movwf	??___fladd
  5953  0E17  085C               	movf	??___fladd,w
  5954  0E18  00DA               	movwf	___fladd@a+2
  5955  0E19                     i1l2020:
  5956  0E19  0857               	movf	___fladd@b+3,w
  5957  0E1A  00DC               	movwf	??___fladd
  5958  0E1B  085C               	movf	??___fladd,w
  5959  0E1C  00E7               	movwf	___fladd@grs
  5960  0E1D                     i1l2022:
  5961  0E1D  085B               	movf	___fladd@a+3,w
  5962  0E1E  00DC               	movwf	??___fladd
  5963  0E1F  085C               	movf	??___fladd,w
  5964  0E20  00D7               	movwf	___fladd@b+3
  5965  0E21                     i1l2024:
  5966  0E21  0867               	movf	___fladd@grs,w
  5967  0E22  00DC               	movwf	??___fladd
  5968  0E23  085C               	movf	??___fladd,w
  5969  0E24  00DB               	movwf	___fladd@a+3
  5970  0E25                     i1l2026:
  5971  0E25  01E7               	clrf	___fladd@grs
  5972  0E26                     i1l2028:
  5973  0E26  0865               	movf	___fladd@aexp,w
  5974  0E27  00DC               	movwf	??___fladd
  5975  0E28  01DD               	clrf	??___fladd+1
  5976  0E29  085D               	movf	??___fladd+1,w
  5977  0E2A  00DF               	movwf	??___fladd+3
  5978  0E2B  0866               	movf	___fladd@bexp,w
  5979  0E2C  025C               	subwf	??___fladd,w
  5980  0E2D  00DE               	movwf	??___fladd+2
  5981  0E2E  1C03               	skipc
  5982  0E2F  03DF               	decf	??___fladd+3,f
  5983  0E30  085F               	movf	??___fladd+3,w
  5984  0E31  3A80               	xorlw	128
  5985  0E32  00FF               	movwf	btemp+1
  5986  0E33  3080               	movlw	128
  5987  0E34  027F               	subwf	btemp+1,w
  5988  0E35  1D03               	skipz
  5989  0E36  2E39               	goto	u226_25
  5990  0E37  301A               	movlw	26
  5991  0E38  025E               	subwf	??___fladd+2,w
  5992  0E39                     u226_25:
  5993  0E39  1C03               	skipc
  5994  0E3A  2E3C               	goto	u226_21
  5995  0E3B  2E3D               	goto	u226_20
  5996  0E3C                     u226_21:
  5997  0E3C  2E7A               	goto	i1l2044
  5998  0E3D                     u226_20:
  5999  0E3D                     i1l2030:
  6000  0E3D  1283               	bcf	3,5	;RP0=0, select bank0
  6001  0E3E  1303               	bcf	3,6	;RP1=0, select bank0
  6002  0E3F  0857               	movf	___fladd@b+3,w
  6003  0E40  0456               	iorwf	___fladd@b+2,w
  6004  0E41  0455               	iorwf	___fladd@b+1,w
  6005  0E42  0454               	iorwf	___fladd@b,w
  6006  0E43  1D03               	skipz
  6007  0E44  2E46               	goto	u227_21
  6008  0E45  2E48               	goto	u227_20
  6009  0E46                     u227_21:
  6010  0E46  3001               	movlw	1
  6011  0E47  2E49               	goto	u228_20
  6012  0E48                     u227_20:
  6013  0E48  3000               	movlw	0
  6014  0E49                     u228_20:
  6015  0E49  00DC               	movwf	??___fladd
  6016  0E4A  085C               	movf	??___fladd,w
  6017  0E4B  00E7               	movwf	___fladd@grs
  6018  0E4C  3000               	movlw	0
  6019  0E4D  00D7               	movwf	___fladd@b+3
  6020  0E4E  3000               	movlw	0
  6021  0E4F  00D6               	movwf	___fladd@b+2
  6022  0E50  3000               	movlw	0
  6023  0E51  00D5               	movwf	___fladd@b+1
  6024  0E52  3000               	movlw	0
  6025  0E53  00D4               	movwf	___fladd@b
  6026  0E54  0865               	movf	___fladd@aexp,w
  6027  0E55  00DC               	movwf	??___fladd
  6028  0E56  085C               	movf	??___fladd,w
  6029  0E57  00E6               	movwf	___fladd@bexp
  6030  0E58  2E82               	goto	i1l661
  6031  0E59                     i1l663:
  6032  0E59  1C67               	btfss	___fladd@grs,0
  6033  0E5A  2E5C               	goto	u229_21
  6034  0E5B  2E5D               	goto	u229_20
  6035  0E5C                     u229_21:
  6036  0E5C  2E66               	goto	i1l2034
  6037  0E5D                     u229_20:
  6038  0E5D                     i1l2032:
  6039  0E5D  0867               	movf	___fladd@grs,w
  6040  0E5E  00DC               	movwf	??___fladd
  6041  0E5F  1003               	clrc
  6042  0E60  0C5C               	rrf	??___fladd,w
  6043  0E61  3801               	iorlw	1
  6044  0E62  00DD               	movwf	??___fladd+1
  6045  0E63  085D               	movf	??___fladd+1,w
  6046  0E64  00E7               	movwf	___fladd@grs
  6047  0E65  2E68               	goto	i1l2036
  6048  0E66                     i1l2034:
  6049  0E66  1003               	clrc
  6050  0E67  0CE7               	rrf	___fladd@grs,f
  6051  0E68                     i1l2036:
  6052  0E68  1C54               	btfss	___fladd@b,0
  6053  0E69  2E6B               	goto	u230_21
  6054  0E6A  2E6C               	goto	u230_20
  6055  0E6B                     u230_21:
  6056  0E6B  2E6D               	goto	i1l2040
  6057  0E6C                     u230_20:
  6058  0E6C                     i1l2038:
  6059  0E6C  17E7               	bsf	___fladd@grs,7
  6060  0E6D                     i1l2040:
  6061  0E6D  3001               	movlw	1
  6062  0E6E  00DC               	movwf	??___fladd
  6063  0E6F                     u231_25:
  6064  0E6F  0D57               	rlf	___fladd@b+3,w
  6065  0E70  0CD7               	rrf	___fladd@b+3,f
  6066  0E71  0CD6               	rrf	___fladd@b+2,f
  6067  0E72  0CD5               	rrf	___fladd@b+1,f
  6068  0E73  0CD4               	rrf	___fladd@b,f
  6069  0E74  0BDC               	decfsz	??___fladd& (0+127),f
  6070  0E75  2E6F               	goto	u231_25
  6071  0E76                     i1l2042:
  6072  0E76  3001               	movlw	1
  6073  0E77  00DC               	movwf	??___fladd
  6074  0E78  085C               	movf	??___fladd,w
  6075  0E79  07E6               	addwf	___fladd@bexp,f
  6076  0E7A                     i1l2044:
  6077  0E7A  1283               	bcf	3,5	;RP0=0, select bank0
  6078  0E7B  1303               	bcf	3,6	;RP1=0, select bank0
  6079  0E7C  0865               	movf	___fladd@aexp,w
  6080  0E7D  0266               	subwf	___fladd@bexp,w
  6081  0E7E  1C03               	skipc
  6082  0E7F  2E81               	goto	u232_21
  6083  0E80  2E82               	goto	u232_20
  6084  0E81                     u232_21:
  6085  0E81  2E59               	goto	i1l663
  6086  0E82                     u232_20:
  6087  0E82                     i1l661:
  6088  0E82  1B64               	btfsc	___fladd@signs,6
  6089  0E83  2E85               	goto	u233_21
  6090  0E84  2E86               	goto	u233_20
  6091  0E85                     u233_21:
  6092  0E85  2ED1               	goto	i1l2070
  6093  0E86                     u233_20:
  6094  0E86                     i1l2046:
  6095  0E86  0866               	movf	___fladd@bexp,w
  6096  0E87  1D03               	btfss	3,2
  6097  0E88  2E8A               	goto	u234_21
  6098  0E89  2E8B               	goto	u234_20
  6099  0E8A                     u234_21:
  6100  0E8A  2E94               	goto	i1l2052
  6101  0E8B                     u234_20:
  6102  0E8B                     i1l2048:
  6103  0E8B  3000               	movlw	0
  6104  0E8C  00D7               	movwf	?___fladd+3
  6105  0E8D  3000               	movlw	0
  6106  0E8E  00D6               	movwf	?___fladd+2
  6107  0E8F  3000               	movlw	0
  6108  0E90  00D5               	movwf	?___fladd+1
  6109  0E91  3000               	movlw	0
  6110  0E92  00D4               	movwf	?___fladd
  6111  0E93  2FFF               	goto	i1l670
  6112  0E94                     i1l2052:
  6113  0E94  0858               	movf	___fladd@a,w
  6114  0E95  07D4               	addwf	___fladd@b,f
  6115  0E96  0859               	movf	___fladd@a+1,w
  6116  0E97  1103               	clrz
  6117  0E98  1803               	skipnc
  6118  0E99  3E01               	addlw	1
  6119  0E9A  1903               	skipnz
  6120  0E9B  2E9D               	goto	u235_21
  6121  0E9C  07D5               	addwf	___fladd@b+1,f
  6122  0E9D                     u235_21:
  6123  0E9D  085A               	movf	___fladd@a+2,w
  6124  0E9E  1103               	clrz
  6125  0E9F  1803               	skipnc
  6126  0EA0  3E01               	addlw	1
  6127  0EA1  1903               	skipnz
  6128  0EA2  2EA4               	goto	u235_22
  6129  0EA3  07D6               	addwf	___fladd@b+2,f
  6130  0EA4                     u235_22:
  6131  0EA4  085B               	movf	___fladd@a+3,w
  6132  0EA5  1103               	clrz
  6133  0EA6  1803               	skipnc
  6134  0EA7  3E01               	addlw	1
  6135  0EA8  1903               	skipnz
  6136  0EA9  2EAB               	goto	u235_23
  6137  0EAA  07D7               	addwf	___fladd@b+3,f
  6138  0EAB                     u235_23:
  6139  0EAB                     i1l2054:
  6140  0EAB  1C57               	btfss	___fladd@b+3,0
  6141  0EAC  2EAE               	goto	u236_21
  6142  0EAD  2EAF               	goto	u236_20
  6143  0EAE                     u236_21:
  6144  0EAE  2F85               	goto	i1l2104
  6145  0EAF                     u236_20:
  6146  0EAF                     i1l2056:
  6147  0EAF  1C67               	btfss	___fladd@grs,0
  6148  0EB0  2EB2               	goto	u237_21
  6149  0EB1  2EB3               	goto	u237_20
  6150  0EB2                     u237_21:
  6151  0EB2  2EBC               	goto	i1l2060
  6152  0EB3                     u237_20:
  6153  0EB3                     i1l2058:
  6154  0EB3  0867               	movf	___fladd@grs,w
  6155  0EB4  00DC               	movwf	??___fladd
  6156  0EB5  1003               	clrc
  6157  0EB6  0C5C               	rrf	??___fladd,w
  6158  0EB7  3801               	iorlw	1
  6159  0EB8  00DD               	movwf	??___fladd+1
  6160  0EB9  085D               	movf	??___fladd+1,w
  6161  0EBA  00E7               	movwf	___fladd@grs
  6162  0EBB  2EBE               	goto	i1l2062
  6163  0EBC                     i1l2060:
  6164  0EBC  1003               	clrc
  6165  0EBD  0CE7               	rrf	___fladd@grs,f
  6166  0EBE                     i1l2062:
  6167  0EBE  1C54               	btfss	___fladd@b,0
  6168  0EBF  2EC1               	goto	u238_21
  6169  0EC0  2EC2               	goto	u238_20
  6170  0EC1                     u238_21:
  6171  0EC1  2EC3               	goto	i1l2066
  6172  0EC2                     u238_20:
  6173  0EC2                     i1l2064:
  6174  0EC2  17E7               	bsf	___fladd@grs,7
  6175  0EC3                     i1l2066:
  6176  0EC3  3001               	movlw	1
  6177  0EC4  00DC               	movwf	??___fladd
  6178  0EC5                     u239_25:
  6179  0EC5  0D57               	rlf	___fladd@b+3,w
  6180  0EC6  0CD7               	rrf	___fladd@b+3,f
  6181  0EC7  0CD6               	rrf	___fladd@b+2,f
  6182  0EC8  0CD5               	rrf	___fladd@b+1,f
  6183  0EC9  0CD4               	rrf	___fladd@b,f
  6184  0ECA  0BDC               	decfsz	??___fladd& (0+127),f
  6185  0ECB  2EC5               	goto	u239_25
  6186  0ECC                     i1l2068:
  6187  0ECC  3001               	movlw	1
  6188  0ECD  00DC               	movwf	??___fladd
  6189  0ECE  085C               	movf	??___fladd,w
  6190  0ECF  07E6               	addwf	___fladd@bexp,f
  6191  0ED0  2F85               	goto	i1l2104
  6192  0ED1                     i1l2070:
  6193  0ED1  0857               	movf	___fladd@b+3,w
  6194  0ED2  3A80               	xorlw	128
  6195  0ED3  00FF               	movwf	btemp+1
  6196  0ED4  085B               	movf	___fladd@a+3,w
  6197  0ED5  3A80               	xorlw	128
  6198  0ED6  027F               	subwf	btemp+1,w
  6199  0ED7  1D03               	skipz
  6200  0ED8  2EE3               	goto	u240_23
  6201  0ED9  085A               	movf	___fladd@a+2,w
  6202  0EDA  0256               	subwf	___fladd@b+2,w
  6203  0EDB  1D03               	skipz
  6204  0EDC  2EE3               	goto	u240_23
  6205  0EDD  0859               	movf	___fladd@a+1,w
  6206  0EDE  0255               	subwf	___fladd@b+1,w
  6207  0EDF  1D03               	skipz
  6208  0EE0  2EE3               	goto	u240_23
  6209  0EE1  0858               	movf	___fladd@a,w
  6210  0EE2  0254               	subwf	___fladd@b,w
  6211  0EE3                     u240_23:
  6212  0EE3  1803               	skipnc
  6213  0EE4  2EE6               	goto	u240_21
  6214  0EE5  2EE7               	goto	u240_20
  6215  0EE6                     u240_21:
  6216  0EE6  2F3F               	goto	i1l2080
  6217  0EE7                     u240_20:
  6218  0EE7                     i1l2072:
  6219  0EE7  30FF               	movlw	255
  6220  0EE8  00DC               	movwf	??___fladd
  6221  0EE9  30FF               	movlw	255
  6222  0EEA  00DD               	movwf	??___fladd+1
  6223  0EEB  30FF               	movlw	255
  6224  0EEC  00DE               	movwf	??___fladd+2
  6225  0EED  30FF               	movlw	255
  6226  0EEE  00DF               	movwf	??___fladd+3
  6227  0EEF  0858               	movf	___fladd@a,w
  6228  0EF0  00E0               	movwf	??___fladd+4
  6229  0EF1  0859               	movf	___fladd@a+1,w
  6230  0EF2  00E1               	movwf	??___fladd+5
  6231  0EF3  085A               	movf	___fladd@a+2,w
  6232  0EF4  00E2               	movwf	??___fladd+6
  6233  0EF5  085B               	movf	___fladd@a+3,w
  6234  0EF6  00E3               	movwf	??___fladd+7
  6235  0EF7  0854               	movf	___fladd@b,w
  6236  0EF8  02E0               	subwf	??___fladd+4,f
  6237  0EF9  0855               	movf	___fladd@b+1,w
  6238  0EFA  1C03               	skipc
  6239  0EFB  0F55               	incfsz	___fladd@b+1,w
  6240  0EFC  2EFE               	goto	u241_21
  6241  0EFD  2EFF               	goto	u241_22
  6242  0EFE                     u241_21:
  6243  0EFE  02E1               	subwf	??___fladd+5,f
  6244  0EFF                     u241_22:
  6245  0EFF  0856               	movf	___fladd@b+2,w
  6246  0F00  1C03               	skipc
  6247  0F01  0F56               	incfsz	___fladd@b+2,w
  6248  0F02  2F04               	goto	u241_23
  6249  0F03  2F05               	goto	u241_24
  6250  0F04                     u241_23:
  6251  0F04  02E2               	subwf	??___fladd+6,f
  6252  0F05                     u241_24:
  6253  0F05  0857               	movf	___fladd@b+3,w
  6254  0F06  1C03               	skipc
  6255  0F07  0F57               	incfsz	___fladd@b+3,w
  6256  0F08  2F0A               	goto	u241_25
  6257  0F09  2F0B               	goto	u241_26
  6258  0F0A                     u241_25:
  6259  0F0A  02E3               	subwf	??___fladd+7,f
  6260  0F0B                     u241_26:
  6261  0F0B  0860               	movf	??___fladd+4,w
  6262  0F0C  07DC               	addwf	??___fladd,f
  6263  0F0D  0861               	movf	??___fladd+5,w
  6264  0F0E  1803               	skipnc
  6265  0F0F  0F61               	incfsz	??___fladd+5,w
  6266  0F10  2F12               	goto	u242_20
  6267  0F11  2F13               	goto	u242_21
  6268  0F12                     u242_20:
  6269  0F12  07DD               	addwf	??___fladd+1,f
  6270  0F13                     u242_21:
  6271  0F13  0862               	movf	??___fladd+6,w
  6272  0F14  1803               	skipnc
  6273  0F15  0F62               	incfsz	??___fladd+6,w
  6274  0F16  2F18               	goto	u242_22
  6275  0F17  2F19               	goto	u242_23
  6276  0F18                     u242_22:
  6277  0F18  07DE               	addwf	??___fladd+2,f
  6278  0F19                     u242_23:
  6279  0F19  0863               	movf	??___fladd+7,w
  6280  0F1A  1803               	skipnc
  6281  0F1B  0A63               	incf	??___fladd+7,w
  6282  0F1C  07DF               	addwf	??___fladd+3,f
  6283  0F1D  085F               	movf	??___fladd+3,w
  6284  0F1E  00D7               	movwf	___fladd@b+3
  6285  0F1F  085E               	movf	??___fladd+2,w
  6286  0F20  00D6               	movwf	___fladd@b+2
  6287  0F21  085D               	movf	??___fladd+1,w
  6288  0F22  00D5               	movwf	___fladd@b+1
  6289  0F23  085C               	movf	??___fladd,w
  6290  0F24  00D4               	movwf	___fladd@b
  6291  0F25                     i1l2074:
  6292  0F25  3080               	movlw	128
  6293  0F26  00DC               	movwf	??___fladd
  6294  0F27  085C               	movf	??___fladd,w
  6295  0F28  06E4               	xorwf	___fladd@signs,f
  6296  0F29  09E7               	comf	___fladd@grs,f
  6297  0F2A  0AE7               	incf	___fladd@grs,f
  6298  0F2B                     i1l2076:
  6299  0F2B  0867               	movf	___fladd@grs,w
  6300  0F2C  1D03               	btfss	3,2
  6301  0F2D  2F2F               	goto	u243_21
  6302  0F2E  2F30               	goto	u243_20
  6303  0F2F                     u243_21:
  6304  0F2F  2F4D               	goto	i1l678
  6305  0F30                     u243_20:
  6306  0F30                     i1l2078:
  6307  0F30  3001               	movlw	1
  6308  0F31  07D4               	addwf	___fladd@b,f
  6309  0F32  3000               	movlw	0
  6310  0F33  1803               	skipnc
  6311  0F34  3001               	movlw	1
  6312  0F35  07D5               	addwf	___fladd@b+1,f
  6313  0F36  3000               	movlw	0
  6314  0F37  1803               	skipnc
  6315  0F38  3001               	movlw	1
  6316  0F39  07D6               	addwf	___fladd@b+2,f
  6317  0F3A  3000               	movlw	0
  6318  0F3B  1803               	skipnc
  6319  0F3C  3001               	movlw	1
  6320  0F3D  07D7               	addwf	___fladd@b+3,f
  6321  0F3E  2F4D               	goto	i1l678
  6322  0F3F                     i1l2080:
  6323  0F3F  0858               	movf	___fladd@a,w
  6324  0F40  02D4               	subwf	___fladd@b,f
  6325  0F41  0859               	movf	___fladd@a+1,w
  6326  0F42  1C03               	skipc
  6327  0F43  0F59               	incfsz	___fladd@a+1,w
  6328  0F44  02D5               	subwf	___fladd@b+1,f
  6329  0F45  085A               	movf	___fladd@a+2,w
  6330  0F46  1C03               	skipc
  6331  0F47  0F5A               	incfsz	___fladd@a+2,w
  6332  0F48  02D6               	subwf	___fladd@b+2,f
  6333  0F49  085B               	movf	___fladd@a+3,w
  6334  0F4A  1C03               	skipc
  6335  0F4B  0F5B               	incfsz	___fladd@a+3,w
  6336  0F4C  02D7               	subwf	___fladd@b+3,f
  6337  0F4D                     i1l678:
  6338  0F4D  0857               	movf	___fladd@b+3,w
  6339  0F4E  0456               	iorwf	___fladd@b+2,w
  6340  0F4F  0455               	iorwf	___fladd@b+1,w
  6341  0F50  0454               	iorwf	___fladd@b,w
  6342  0F51  1D03               	skipz
  6343  0F52  2F54               	goto	u244_21
  6344  0F53  2F55               	goto	u244_20
  6345  0F54                     u244_21:
  6346  0F54  2F81               	goto	i1l2102
  6347  0F55                     u244_20:
  6348  0F55                     i1l2082:
  6349  0F55  0867               	movf	___fladd@grs,w
  6350  0F56  1D03               	btfss	3,2
  6351  0F57  2F59               	goto	u245_21
  6352  0F58  2F5A               	goto	u245_20
  6353  0F59                     u245_21:
  6354  0F59  2F81               	goto	i1l2102
  6355  0F5A                     u245_20:
  6356  0F5A                     i1l2084:
  6357  0F5A  3000               	movlw	0
  6358  0F5B  00D7               	movwf	?___fladd+3
  6359  0F5C  3000               	movlw	0
  6360  0F5D  00D6               	movwf	?___fladd+2
  6361  0F5E  3000               	movlw	0
  6362  0F5F  00D5               	movwf	?___fladd+1
  6363  0F60  3000               	movlw	0
  6364  0F61  00D4               	movwf	?___fladd
  6365  0F62  2FFF               	goto	i1l670
  6366  0F63                     i1l2088:
  6367  0F63  3001               	movlw	1
  6368  0F64  00DC               	movwf	??___fladd
  6369  0F65                     u246_25:
  6370  0F65  1003               	clrc
  6371  0F66  0DD4               	rlf	___fladd@b,f
  6372  0F67  0DD5               	rlf	___fladd@b+1,f
  6373  0F68  0DD6               	rlf	___fladd@b+2,f
  6374  0F69  0DD7               	rlf	___fladd@b+3,f
  6375  0F6A  0BDC               	decfsz	??___fladd,f
  6376  0F6B  2F65               	goto	u246_25
  6377  0F6C                     i1l2090:
  6378  0F6C  1FE7               	btfss	___fladd@grs,7
  6379  0F6D  2F6F               	goto	u247_21
  6380  0F6E  2F70               	goto	u247_20
  6381  0F6F                     u247_21:
  6382  0F6F  2F71               	goto	i1l682
  6383  0F70                     u247_20:
  6384  0F70                     i1l2092:
  6385  0F70  1454               	bsf	___fladd@b,0
  6386  0F71                     i1l682:
  6387  0F71  1C67               	btfss	___fladd@grs,0
  6388  0F72  2F74               	goto	u248_21
  6389  0F73  2F75               	goto	u248_20
  6390  0F74                     u248_21:
  6391  0F74  2F78               	goto	i1l2096
  6392  0F75                     u248_20:
  6393  0F75                     i1l2094:
  6394  0F75  1403               	setc
  6395  0F76  0DE7               	rlf	___fladd@grs,f
  6396  0F77  2F7A               	goto	i1l2098
  6397  0F78                     i1l2096:
  6398  0F78  1003               	clrc
  6399  0F79  0DE7               	rlf	___fladd@grs,f
  6400  0F7A                     i1l2098:
  6401  0F7A  0866               	movf	___fladd@bexp,w
  6402  0F7B  1903               	btfsc	3,2
  6403  0F7C  2F7E               	goto	u249_21
  6404  0F7D  2F7F               	goto	u249_20
  6405  0F7E                     u249_21:
  6406  0F7E  2F81               	goto	i1l2102
  6407  0F7F                     u249_20:
  6408  0F7F                     i1l2100:
  6409  0F7F  3001               	movlw	1
  6410  0F80  02E6               	subwf	___fladd@bexp,f
  6411  0F81                     i1l2102:
  6412  0F81  1FD6               	btfss	___fladd@b+2,7
  6413  0F82  2F84               	goto	u250_21
  6414  0F83  2F85               	goto	u250_20
  6415  0F84                     u250_21:
  6416  0F84  2F63               	goto	i1l2088
  6417  0F85                     u250_20:
  6418  0F85                     i1l2104:
  6419  0F85  01E5               	clrf	___fladd@aexp
  6420  0F86                     i1l2106:
  6421  0F86  1FE7               	btfss	___fladd@grs,7
  6422  0F87  2F89               	goto	u251_21
  6423  0F88  2F8A               	goto	u251_20
  6424  0F89                     u251_21:
  6425  0F89  2F98               	goto	i1l2114
  6426  0F8A                     u251_20:
  6427  0F8A                     i1l2108:
  6428  0F8A  0867               	movf	___fladd@grs,w
  6429  0F8B  397F               	andlw	127
  6430  0F8C  1903               	btfsc	3,2
  6431  0F8D  2F8F               	goto	u252_21
  6432  0F8E  2F90               	goto	u252_20
  6433  0F8F                     u252_21:
  6434  0F8F  2F93               	goto	i1l688
  6435  0F90                     u252_20:
  6436  0F90                     i1l2110:
  6437  0F90  01E5               	clrf	___fladd@aexp
  6438  0F91  0AE5               	incf	___fladd@aexp,f
  6439  0F92  2F98               	goto	i1l2114
  6440  0F93                     i1l688:
  6441  0F93  1C54               	btfss	___fladd@b,0
  6442  0F94  2F96               	goto	u253_21
  6443  0F95  2F97               	goto	u253_20
  6444  0F96                     u253_21:
  6445  0F96  2F98               	goto	i1l2114
  6446  0F97                     u253_20:
  6447  0F97  2F90               	goto	i1l2110
  6448  0F98                     i1l2114:
  6449  0F98  0865               	movf	___fladd@aexp,w
  6450  0F99  1903               	btfsc	3,2
  6451  0F9A  2F9C               	goto	u254_21
  6452  0F9B  2F9D               	goto	u254_20
  6453  0F9C                     u254_21:
  6454  0F9C  2FD1               	goto	i1l691
  6455  0F9D                     u254_20:
  6456  0F9D                     i1l2116:
  6457  0F9D  3001               	movlw	1
  6458  0F9E  07D4               	addwf	___fladd@b,f
  6459  0F9F  3000               	movlw	0
  6460  0FA0  1803               	skipnc
  6461  0FA1  3001               	movlw	1
  6462  0FA2  07D5               	addwf	___fladd@b+1,f
  6463  0FA3  3000               	movlw	0
  6464  0FA4  1803               	skipnc
  6465  0FA5  3001               	movlw	1
  6466  0FA6  07D6               	addwf	___fladd@b+2,f
  6467  0FA7  3000               	movlw	0
  6468  0FA8  1803               	skipnc
  6469  0FA9  3001               	movlw	1
  6470  0FAA  07D7               	addwf	___fladd@b+3,f
  6471  0FAB                     i1l2118:
  6472  0FAB  1C57               	btfss	___fladd@b+3,0
  6473  0FAC  2FAE               	goto	u255_21
  6474  0FAD  2FAF               	goto	u255_20
  6475  0FAE                     u255_21:
  6476  0FAE  2FD1               	goto	i1l691
  6477  0FAF                     u255_20:
  6478  0FAF                     i1l2120:
  6479  0FAF  0854               	movf	___fladd@b,w
  6480  0FB0  00DC               	movwf	??___fladd
  6481  0FB1  0855               	movf	___fladd@b+1,w
  6482  0FB2  00DD               	movwf	??___fladd+1
  6483  0FB3  0856               	movf	___fladd@b+2,w
  6484  0FB4  00DE               	movwf	??___fladd+2
  6485  0FB5  0857               	movf	___fladd@b+3,w
  6486  0FB6  00DF               	movwf	??___fladd+3
  6487  0FB7  3001               	movlw	1
  6488  0FB8  00E0               	movwf	??___fladd+4
  6489  0FB9                     u256_25:
  6490  0FB9  0D5F               	rlf	??___fladd+3,w
  6491  0FBA  0CDF               	rrf	??___fladd+3,f
  6492  0FBB  0CDE               	rrf	??___fladd+2,f
  6493  0FBC  0CDD               	rrf	??___fladd+1,f
  6494  0FBD  0CDC               	rrf	??___fladd,f
  6495  0FBE                     u256_20:
  6496  0FBE  0BE0               	decfsz	??___fladd+4,f
  6497  0FBF  2FB9               	goto	u256_25
  6498  0FC0  085F               	movf	??___fladd+3,w
  6499  0FC1  00D7               	movwf	___fladd@b+3
  6500  0FC2  085E               	movf	??___fladd+2,w
  6501  0FC3  00D6               	movwf	___fladd@b+2
  6502  0FC4  085D               	movf	??___fladd+1,w
  6503  0FC5  00D5               	movwf	___fladd@b+1
  6504  0FC6  085C               	movf	??___fladd,w
  6505  0FC7  00D4               	movwf	___fladd@b
  6506  0FC8  0A66               	incf	___fladd@bexp,w
  6507  0FC9  1903               	btfsc	3,2
  6508  0FCA  2FCC               	goto	u257_21
  6509  0FCB  2FCD               	goto	u257_20
  6510  0FCC                     u257_21:
  6511  0FCC  2FD1               	goto	i1l691
  6512  0FCD                     u257_20:
  6513  0FCD                     i1l2122:
  6514  0FCD  3001               	movlw	1
  6515  0FCE  00DC               	movwf	??___fladd
  6516  0FCF  085C               	movf	??___fladd,w
  6517  0FD0  07E6               	addwf	___fladd@bexp,f
  6518  0FD1                     i1l691:
  6519  0FD1  0A66               	incf	___fladd@bexp,w
  6520  0FD2  1903               	btfsc	3,2
  6521  0FD3  2FD5               	goto	u258_21
  6522  0FD4  2FD6               	goto	u258_20
  6523  0FD5                     u258_21:
  6524  0FD5  2FDB               	goto	i1l2126
  6525  0FD6                     u258_20:
  6526  0FD6                     i1l2124:
  6527  0FD6  0866               	movf	___fladd@bexp,w
  6528  0FD7  1D03               	btfss	3,2
  6529  0FD8  2FDA               	goto	u259_21
  6530  0FD9  2FDB               	goto	u259_20
  6531  0FDA                     u259_21:
  6532  0FDA  2FE9               	goto	i1l2132
  6533  0FDB                     u259_20:
  6534  0FDB                     i1l2126:
  6535  0FDB  3000               	movlw	0
  6536  0FDC  00D7               	movwf	___fladd@b+3
  6537  0FDD  3000               	movlw	0
  6538  0FDE  00D6               	movwf	___fladd@b+2
  6539  0FDF  3000               	movlw	0
  6540  0FE0  00D5               	movwf	___fladd@b+1
  6541  0FE1  3000               	movlw	0
  6542  0FE2  00D4               	movwf	___fladd@b
  6543  0FE3                     i1l2128:
  6544  0FE3  0866               	movf	___fladd@bexp,w
  6545  0FE4  1D03               	btfss	3,2
  6546  0FE5  2FE7               	goto	u260_21
  6547  0FE6  2FE8               	goto	u260_20
  6548  0FE7                     u260_21:
  6549  0FE7  2FE9               	goto	i1l2132
  6550  0FE8                     u260_20:
  6551  0FE8                     i1l2130:
  6552  0FE8  01E4               	clrf	___fladd@signs
  6553  0FE9                     i1l2132:
  6554  0FE9  1C66               	btfss	___fladd@bexp,0
  6555  0FEA  2FEC               	goto	u261_21
  6556  0FEB  2FED               	goto	u261_20
  6557  0FEC                     u261_21:
  6558  0FEC  2FEF               	goto	i1l2136
  6559  0FED                     u261_20:
  6560  0FED                     i1l2134:
  6561  0FED  17D6               	bsf	___fladd@b+2,7
  6562  0FEE  2FF3               	goto	i1l699
  6563  0FEF                     i1l2136:
  6564  0FEF  307F               	movlw	127
  6565  0FF0  00DC               	movwf	??___fladd
  6566  0FF1  085C               	movf	??___fladd,w
  6567  0FF2  05D6               	andwf	___fladd@b+2,f
  6568  0FF3                     i1l699:
  6569  0FF3  0866               	movf	___fladd@bexp,w
  6570  0FF4  00DC               	movwf	??___fladd
  6571  0FF5  1003               	clrc
  6572  0FF6  0C5C               	rrf	??___fladd,w
  6573  0FF7  00DD               	movwf	??___fladd+1
  6574  0FF8  085D               	movf	??___fladd+1,w
  6575  0FF9  00D7               	movwf	___fladd@b+3
  6576  0FFA                     i1l2138:
  6577  0FFA  1FE4               	btfss	___fladd@signs,7
  6578  0FFB  2FFD               	goto	u262_21
  6579  0FFC  2FFE               	goto	u262_20
  6580  0FFD                     u262_21:
  6581  0FFD  2FFF               	goto	i1l700
  6582  0FFE                     u262_20:
  6583  0FFE                     i1l2140:
  6584  0FFE  17D7               	bsf	___fladd@b+3,7
  6585  0FFF                     i1l700:
  6586  0FFF                     i1l670:
  6587  0FFF  0008               	return
  6588  1000                     __end_of___fladd:
  6589  007E                     btemp	set	126	;btemp
  6590  007E                     wtemp0	set	126
  6591                           
  6592                           	psect	idloc
  6593                           
  6594                           ;Config register IDLOC0 @ 0x2000
  6595                           ;	unspecified, using default values
  6596  2000                     	org	8192
  6597  2000  3FFF               	dw	16383
  6598                           
  6599                           ;Config register IDLOC1 @ 0x2001
  6600                           ;	unspecified, using default values
  6601  2001                     	org	8193
  6602  2001  3FFF               	dw	16383
  6603                           
  6604                           ;Config register IDLOC2 @ 0x2002
  6605                           ;	unspecified, using default values
  6606  2002                     	org	8194
  6607  2002  3FFF               	dw	16383
  6608                           
  6609                           ;Config register IDLOC3 @ 0x2003
  6610                           ;	unspecified, using default values
  6611  2003                     	org	8195
  6612  2003  3FFF               	dw	16383
  6613                           
  6614                           	psect	config
  6615                           
  6616                           ;Config register CONFIG1 @ 0x2007
  6617                           ;	Oscillator Selection bits
  6618                           ;	FOSC = INTRC_NOCLKOUT, INTOSCIO oscillator: I/O function on RA6/OSC2/CLKOUT pin, I/O f
      +                          unction on RA7/OSC1/CLKIN
  6619                           ;	Watchdog Timer Enable bit
  6620                           ;	WDTE = OFF, WDT disabled and can be enabled by SWDTEN bit of the WDTCON register
  6621                           ;	Power-up Timer Enable bit
  6622                           ;	PWRTE = OFF, PWRT disabled
  6623                           ;	RE3/MCLR pin function select bit
  6624                           ;	MCLRE = OFF, RE3/MCLR pin function is digital input, MCLR internally tied to VDD
  6625                           ;	Code Protection bit
  6626                           ;	CP = OFF, Program memory code protection is disabled
  6627                           ;	Data Code Protection bit
  6628                           ;	CPD = OFF, Data memory code protection is disabled
  6629                           ;	Brown Out Reset Selection bits
  6630                           ;	BOREN = OFF, BOR disabled
  6631                           ;	Internal External Switchover bit
  6632                           ;	IESO = OFF, Internal/External Switchover mode is disabled
  6633                           ;	Fail-Safe Clock Monitor Enabled bit
  6634                           ;	FCMEN = OFF, Fail-Safe Clock Monitor is disabled
  6635                           ;	Low Voltage Programming Enable bit
  6636                           ;	LVP = OFF, RB3 pin has digital I/O, HV on MCLR must be used for programming
  6637                           ;	In-Circuit Debugger Mode bit
  6638                           ;	DEBUG = 0x1, unprogrammed default
  6639  2007                     	org	8199
  6640  2007  20D4               	dw	8404
  6641                           
  6642                           ;Config register CONFIG2 @ 0x2008
  6643                           ;	Brown-out Reset Selection bit
  6644                           ;	BOR4V = BOR40V, Brown-out Reset set to 4.0V
  6645                           ;	Flash Program Memory Self Write Enable bits
  6646                           ;	WRT = OFF, Write protection off
  6647  2008                     	org	8200
  6648  2008  3FFF               	dw	16383

Data Sizes:
    Strings     0
    Constant    0
    Data        0
    BSS         27
    Persistent  0
    Stack       0

Auto Spaces:
    Space          Size  Autos    Used
    COMMON           14     14      14
    BANK0            80     78      80
    BANK1            80     24      49
    BANK3            96      0       0
    BANK2            96      0       0

Pointer List with Targets:

    None.

Critical Paths under _main in COMMON

    None.

Critical Paths under _isr in COMMON

    _map->___xxtofl
    ___fltol->___xxtofl
    ___flmul->___xxtofl
    ___fldiv->___xxtofl
    ___fladd->___xxtofl

Critical Paths under _main in BANK0

    None.

Critical Paths under _isr in BANK0

    _map->___fltol
    ___fltol->___fladd
    ___flmul->___fldiv
    ___fladd->___flmul

Critical Paths under _main in BANK1

    _main->_ESCRITURA_EEPROM

Critical Paths under _isr in BANK1

    _isr->_map
    _map->___fltol

Critical Paths under _main in BANK3

    None.

Critical Paths under _isr in BANK3

    None.

Critical Paths under _main in BANK2

    None.

Critical Paths under _isr in BANK2

    None.

Call Graph Tables:

 ---------------------------------------------------------------------------------
 (Depth) Function   	        Calls       Base Space   Used Autos Params    Refs
 ---------------------------------------------------------------------------------
 (0) _main                                                 1     1      0     674
                                             23 BANK1      1     1      0
                   _ESCRITURA_EEPROM
                     _LECTURA_EEPROM
                              _setup
 ---------------------------------------------------------------------------------
 (1) _setup                                                1     1      0       0
                                             21 BANK1      1     1      0
 ---------------------------------------------------------------------------------
 (1) _LECTURA_EEPROM                                       1     1      0      22
                                             21 BANK1      1     1      0
 ---------------------------------------------------------------------------------
 (1) _ESCRITURA_EEPROM                                     2     1      1     652
                                             21 BANK1      2     1      1
 ---------------------------------------------------------------------------------
 Estimated maximum stack depth 1
 ---------------------------------------------------------------------------------
 (Depth) Function   	        Calls       Base Space   Used Autos Params    Refs
 ---------------------------------------------------------------------------------
 (2) _isr                                                  8     8      0   10077
                                             13 BANK1      8     8      0
                                _map
 ---------------------------------------------------------------------------------
 (3) _map                                                  8     0      8   10077
                                              5 BANK1      8     0      8
                            ___fladd
                            ___fldiv
                            ___flmul
                            ___fltol
                           ___xxtofl
 ---------------------------------------------------------------------------------
 (4) ___xxtofl                                            14    10      4     626
                                              0 COMMON    14    10      4
 ---------------------------------------------------------------------------------
 (4) ___fltol                                             11     7      4     305
                                             72 BANK0      6     2      4
                                              0 BANK1      5     5      0
                            ___fladd (ARG)
                            ___fldiv (ARG)
                            ___flmul (ARG)
                           ___xxtofl (ARG)
 ---------------------------------------------------------------------------------
 (4) ___flmul                                             26    18      8    2417
                                             26 BANK0     26    18      8
                          __Umul8_16
                            ___fldiv (ARG)
                           ___xxtofl (ARG)
 ---------------------------------------------------------------------------------
 (5) __Umul8_16                                            9     7      2     799
                                              0 COMMON     9     7      2
 ---------------------------------------------------------------------------------
 (4) ___fldiv                                             26    18      8    1273
                                              0 BANK0     26    18      8
                           ___xxtofl (ARG)
 ---------------------------------------------------------------------------------
 (4) ___fladd                                             20    12      8    2262
                                             52 BANK0     20    12      8
                            ___fldiv (ARG)
                            ___flmul (ARG)
                           ___xxtofl (ARG)
 ---------------------------------------------------------------------------------
 Estimated maximum stack depth 5
 ---------------------------------------------------------------------------------

 Call Graph Graphs:

 _main (ROOT)
   _ESCRITURA_EEPROM
   _LECTURA_EEPROM
   _setup

 _isr (ROOT)
   _map
     ___fladd
       ___fldiv (ARG)
         ___xxtofl (ARG)
       ___flmul (ARG)
         __Umul8_16
         ___fldiv (ARG)
         ___xxtofl (ARG)
       ___xxtofl (ARG)
     ___fldiv
     ___flmul
     ___fltol
       ___fladd (ARG)
       ___fldiv (ARG)
       ___flmul (ARG)
       ___xxtofl (ARG)
     ___xxtofl

 Address spaces:
Name               Size   Autos  Total    Cost      Usage
BITCOMMON            E      0       0       0        0.0%
EEDATA             100      0       0       0        0.0%
NULL                 0      0       0       0        0.0%
CODE                 0      0       0       0        0.0%
COMMON               E      E       E       1      100.0%
BITSFR0              0      0       0       1        0.0%
SFR0                 0      0       0       1        0.0%
BITSFR1              0      0       0       2        0.0%
SFR1                 0      0       0       2        0.0%
STACK                0      0       0       2        0.0%
ABS                  0      0      8F       3        0.0%
BITBANK0            50      0       0       4        0.0%
BITSFR3              0      0       0       4        0.0%
SFR3                 0      0       0       4        0.0%
BANK0               50     4E      50       5      100.0%
BITSFR2              0      0       0       5        0.0%
SFR2                 0      0       0       5        0.0%
BITBANK1            50      0       0       6        0.0%
BANK1               50     18      31       7       61.3%
BITBANK3            60      0       0       8        0.0%
BANK3               60      0       0       9        0.0%
BITBANK2            60      0       0      10        0.0%
BANK2               60      0       0      11        0.0%
DATA                 0      0      8F      12        0.0%


Microchip Technology PIC Macro Assembler V2.35 build 20211206165544 
Symbol Table                                                                                   Wed Jun 01 19:17:33 2022

             ___fldiv@aexp 0039               ___fldiv@bexp 0038               ___fldiv@sign 0031  
              _SSPSTATbits 0094                         fsr 0004        __Umul8_16@word_mpld 0076  
                      l243 0BEE                        l252 0D74                        l263 08E9  
                      l272 07ED                        l265 08ED                        l266 090B  
                      l275 0861                        l277 0867                        l278 086D  
                      _PR2 0092                        _map 090C                        _isr 0024  
                      indf 0000               ___flmul@aexp 004C               ___flmul@bexp 004D  
             ___flmul@sign 0047               ___flmul@temp 0052               ___flmul@prod 004E  
             ___fltol@exp1 006D                       l2500 088B                       l2510 0894  
                     l2502 088C                       l2600 07E9                       l2520 08A3  
                     l2512 0895                       l2504 088D                       l2530 08B8  
                     l2522 08A6                       l2514 0898                       l2506 0890  
                     l2540 08C2                       l2532 08BC                       l2524 08AB  
                     l2516 0899                       l2508 0893                       l2550 08D1  
                     l2542 08C5                       l2534 08BD                       l2526 08AE  
                     l2518 089B                       l2560 08E1                       l2552 08D5  
                     l2544 08C8                       l2536 08BE                       l2528 08B1  
                     l2480 087A                       l2472 086E                       l2570 08F7  
                     l2562 08E2                       l2554 08D9                       l2546 08C9  
                     l2538 08C1                       l2490 0884                       l2482 087E  
                     l2474 0874                       l2810 0BA2                       l2580 0905  
                     l2572 08FB                       l2564 08E3                       l2556 08DB  
                     l2548 08CF                       l2492 0887                       l2484 0880  
                     l2476 0875                       l2900 0D15                       l2820 0BD5  
                     l2812 0BAD                       l2590 085A                       l2582 0908  
                     l2574 08FC                       l2566 08E4                       l2558 08DF  
                     l2494 0888                       l2486 0882                       l2478 0879  
                     l2910 0D56                       l2902 0D20                       l2822 0BDC  
                     l2814 0BB4                       l2830 0BF8                       l2806 0B97  
                     l2592 085B                       l2576 08FF                       l2568 08E8  
                     l2496 0889                       l2488 0883                       l2920 0D66  
                     l2912 0D5D                       l2904 0D27                       l2840 0C0F  
                     l2832 0C00                       l2824 0BE9                       l2816 0BC1  
                     l2808 0B9C                       l2594 0860                       l2586 084D  
                     l2578 0902                       l2498 088A                       l2914 0D61  
                     l2906 0D39                       l2922 0D68                       l2850 0C44  
                     l2842 0C14                       l2834 0C02                       l2818 0BC8  
                     l2826 0BEE                       l2588 0857                       l2596 07E2  
                     l2924 0D6E                       l2908 0D44                       l2916 0D62  
                     l2860 0C70                       l2852 0C57                       l2844 0C1E  
                     l2836 0C08                       l2828 0BF5                       l2598 07E6  
                     l2918 0D65                       l2870 0CB0                       l2862 0C77  
                     l2854 0C5E                       l2846 0C25                       l2838 0C0A  
                     ?_map 00BE                       l2880 0CBE                       l2864 0C8A  
                     l2872 0CB3                       l2848 0C38                       l2856 0C61  
                     l2890 0CF2                       l2882 0CC3                       l2874 0CB6  
                     l2866 0C96                       l2858 0C66                       l2892 0D04  
                     l2884 0CCE                       l2876 0CB7                       l2868 0CA9  
                     l2894 0D0B                       l2886 0CD5                       l2878 0CB9  
                     l2896 0D0F                       l2888 0CE7                       l2898 0D10  
                     ?_isr 0070                       _CONT 00A9                       u4000 0C0F  
                     u4001 0C0E                       u4010 0C14                       u4011 0C13  
                     u4020 0C66                       u4021 0C65                       u4030 0CBE  
                     u4031 0CBD                       u4040 0CC3                       u4041 0CC2  
                     u4050 0D15                       u4051 0D14                       u4107 0C48  
                     u4060 0D6E                       u4061 0D6D                       u4117 0C5B  
                     u3430 08ED                       u3431 08EC                       u4207 0D24  
                     u4127 0C74                       u3440 0867                       u3441 0866  
                     u4217 0D36                       u4137 0C87                       u4227 0D48  
                     u4147 0C9A                       u4237 0D5A                       u4157 0CAD  
                     u4077 0BF2                       u4247 08B5                       u4167 0CD2  
                     u4087 0C22                       u4177 0CE4                       u4097 0C35  
                     u4187 0CF6                       u4197 0D08                       u3930 0BA2  
                     u3931 0BA1                       u3940 0BAD                       u3941 0BAC  
                     u3950 0BC1                       u3951 0BC0                       u3960 0BD5  
                     u3961 0BD4                       u3970 0BE9                       u3971 0BE8  
                     _MODO 00B8                       u3980 0C00                       u3981 0BFF  
                     u3990 0C08                       u3991 0C07                       _main 0B97  
                     map@x 00BE                       btemp 007E              _BANDERA_USART 006E  
                     start 0010            ___fldiv@new_exp 0032             _VALORPOT_USART 006F  
                    ??_map 007E                      ??_isr 00C6              ___fltol@sign1 006C  
          __end_of___fladd 1000                      ?_main 0070            __end_of___fldiv 0B97  
                    _EEADR 010D                      _EEDAT 010C            __end_of___flmul 06FE  
          __end_of___fltol 1800                      _ANSEL 0188                      _CONT3 00A8  
                    i1l200 0286                      i1l212 031B                      i1l160 0043  
                    i1l233 0392                      i1l227 0392                      i1l163 006E  
                    i1l164 0059                      i1l191 0322                      i1l159 006F  
                    i1l700 0FFF                      i1l269 09B9                      i1l550 17FF  
                    i1l560 17FF                      i1l713 0A16                      i1l810 0781  
                    i1l715 0B96                      i1l811 078D                      i1l803 0765  
                    i1l661 0E82                      i1l557 17EA                      i1l670 0FFF  
                    i1l663 0E59                      i1l735 0B7A                      i1l657 0DDB  
                    i1l737 0B8A                      i1l729 0B08                      i1l753 06FD  
                    i1l682 0F71                      i1l691 0FD1                      i1l772 07CC  
                    i1l765 06F1                      i1l678 0F4D                      i1l774 07DE  
                    i1l759 0669                      i1l688 0F93                      i1l699 0FF3  
                    i1l797 0720                      i1l799 07B7                      _RCREG 001A  
                    _SPBRG 0099                      _PORTA 0005                      _PORTB 0006  
                    _PORTC 0007                      _PORTD 0008                      _PORTE 0009  
                    _POT_1 00B7                      _POT_2 00B6                      _POT_3 00B5  
                    _POT_4 00B4                      _TRISA 0085                      _TRISB 0086  
                    _TRISC 0087                      _TRISD 0088                      _TRISE 0089  
                    map@x0 00C0                      map@x1 00C1                      map@y0 00C2  
                    map@y1 00C4                      _setup 086E                      pclath 000A  
          _SELECCION_SERVO 00AA                      status 0003                      wtemp0 007E  
          __initialization 0013               __end_of_main 0D78           ??_LECTURA_EEPROM 00CE  
                   ??_main 00D0       ESCRITURA_EEPROM@DATA 00CE                     _ADRESH 001E  
                   _CCPR1L 0015                     _CCPR2L 001B                     _EECON2 018D  
                   ?_setup 0070                     _ANSELH 0189          ?_ESCRITURA_EEPROM 00CE  
                   i1l2000 0DF1                     i1l2010 0E05                     i1l2002 0DF5  
                   i1l2100 0F7F                     i1l2020 0E19                     i1l2012 0E09  
                   i1l2004 0DF9                     i1l2110 0F90                     i1l2102 0F81  
                   i1l2030 0E3D                     i1l2022 0E1D                     i1l2014 0E0D  
                   i1l2006 0DFD                     i1l2120 0FAF                     i1l2104 0F85  
                   i1l2040 0E6D                     i1l2032 0E5D                     i1l2024 0E21  
                   i1l2016 0E11                     i1l2008 0E01                     i1l2200 0A5F  
                   i1l2130 0FE8                     i1l2122 0FCD                     i1l2114 0F98  
                   i1l2106 0F86                     i1l2042 0E76                     i1l2034 0E66  
                   i1l2018 0E15                     i1l2026 0E25                     i1l2210 0A88  
                   i1l2202 0A67                     i1l2140 0FFE                     i1l2132 0FE9  
                   i1l2124 0FD6                     i1l2116 0F9D                     i1l2108 0F8A  
                   i1l2060 0EBC                     i1l2052 0E94                     i1l2036 0E68  
                   i1l2044 0E7A                     i1l2028 0E26                     i1l2220 0AA9  
                   i1l2212 0A8C                     i1l2204 0A6F                     i1l2300 03C3  
                   i1l2134 0FED                     i1l2126 0FDB                     i1l2118 0FAB  
                   i1l2062 0EBE                     i1l2054 0EAB                     i1l2046 0E86  
                   i1l2070 0ED1                     i1l2038 0E6C                     i1l2230 0ACB  
                   i1l2222 0AB7                     i1l2214 0A8D                     i1l2206 0A71  
                   i1l2150 09CC                     i1l2142 09BA                     i1l2310 03DB  
                   i1l2302 03CB                     i1l2136 0FEF                     i1l2128 0FE3  
                   i1l2072 0EE7                     i1l2080 0F3F                     i1l2064 0EC2  
                   i1l2056 0EAF                     i1l2048 0E8B                     i1l2232 0AD4  
                   i1l2240 0AE8                     i1l2208 0A76                     i1l2216 0A96  
                   i1l2224 0ABB                     i1l2152 09D1                     i1l2160 09E1  
                   i1l2144 09C1                     i1l2400 069E                     i1l2320 03F7  
                   i1l2312 03E0                     i1l2304 03D0                     i1l2138 0FFA  
                   i1l2090 0F6C                     i1l2082 0F55                     i1l2074 0F25  
                   i1l2066 0EC3                     i1l2058 0EB3                     i1l2242 0AEC  
                   i1l2234 0AD8                     i1l2226 0AC1                     i1l2218 0AA8  
                   i1l2170 09F9                     i1l2162 09E9                     i1l2154 09D6  
                   i1l2146 09C7                     i1l2410 06D5                     i1l2402 06A4  
                   i1l2330 041A                     i1l2322 03FC                     i1l2314 03E5  
                   i1l2306 03D6                     i1l2092 0F70                     i1l2084 0F5A  
                   i1l2076 0F2B                     i1l2068 0ECC                     i1l2260 0B3D  
                   i1l2252 0B0D                     i1l2244 0AED                     i1l2236 0AD9  
                   i1l2228 0AC9                     i1l2172 09FE                     i1l2180 0A0E  
                   i1l2164 09EE                     i1l2156 09DE                     i1l2148 09CB  
                   i1l2420 06F5                     i1l2412 06D7                     i1l2404 06B1  
                   i1l2340 04A8                     i1l2332 0427                     i1l2324 0401  
                   i1l2316 03ED                     i1l2308 03DA                     i1l2094 0F75  
                   i1l2078 0F30                     i1l2270 0B71                     i1l2254 0B12  
                   i1l2262 0B43                     i1l2246 0AF1                     i1l2238 0AE2  
                   i1l2182 0A1E                     i1l2190 0A37                     i1l2174 0A03  
                   i1l2166 09F4                     i1l2158 09DF                     i1l2414 06E5  
                   i1l2406 06BC                     i1l2350 050A                     i1l2342 04C4  
                   i1l2334 0444                     i1l2318 03EF                     i1l2430 0718  
                   i1l2096 0F78                     i1l2088 0F63                     i1l2272 0B79  
                   i1l2264 0B50                     i1l2256 0B20                     i1l2248 0B05  
                   i1l2192 0A3C                     i1l2184 0A2A                     i1l2176 0A0B  
                   i1l2168 09F8                     i1l2416 06E9                     i1l2408 06CB  
                   i1l2360 059A                     i1l2352 0527                     i1l2344 04CD  
                   i1l2336 0460                     i1l2328 040A                     i1l2440 0743  
                   i1l2432 0728                     i1l2424 06FF                     i1l2098 0F7A  
                   i1l2274 0B80                     i1l2266 0B5E                     i1l2258 0B24  
                   i1l2186 0A2E                     i1l2178 0A0C                     i1l2418 06EA  
                   i1l2370 062C                     i1l2362 05C7                     i1l2354 0540  
                   i1l2346 04DD                     i1l2338 048C                     i1l2290 03AE  
                   i1l2450 0777                     i1l2442 074A                     i1l2426 0704  
                   i1l2610 0034                     i1l2276 0B84                     i1l2268 0B6D  
                   i1l2196 0A45                     i1l1900 07BB                     i1l2372 0635  
                   i1l2380 0649                     i1l2364 05ED                     i1l2356 055D  
                   i1l2348 04FA                     i1l2292 03AF                     i1l2284 039D  
                   i1l2460 07AA                     i1l2452 077B                     i1l2444 074E  
                   i1l2436 0731                     i1l2428 0708                     i1l2700 01E9  
                   i1l2620 004E                     i1l2612 003A                     i1l2604 0024  
                   i1l2278 0B86                     i1l2198 0A57                     i1l1902 07C2  
                   i1l2382 064D                     i1l2374 0639                     i1l2366 0615  
                   i1l2358 058A                     i1l2294 03B4                     i1l2286 03A4  
                   i1l2462 07AE                     i1l2454 0785                     i1l2446 075C  
                   i1l2438 0736                     i1l2710 0228                     i1l2702 0203  
                   i1l2630 0067                     i1l2622 0051                     i1l2614 003B  
                   i1l2606 0028                     i1l1904 07C6                     i1l2392 066E  
                   i1l2384 064E                     i1l2376 063A                     i1l2368 061E  
                   i1l2296 03B9                     i1l2288 03AA                     u210_20 17B9  
                   i1l1920 17A3                     i1l1912 1764                     i1l2464 07AF  
                   i1l2456 078F                     i1l2448 076C                     i1l2800 0387  
                   i1l2720 024F                     i1l2712 022E                     i1l2704 0210  
                   i1l2640 0089                     i1l2632 006C                     i1l2624 0056  
                   i1l2616 0040                     i1l2608 002E                     u210_21 17B8  
                   i1l1906 07D5                     i1l2394 0673                     i1l2386 0652  
                   i1l2378 0643                     i1l2298 03C1                     i1l1922 17A4  
                   i1l1914 1775                     i1l2458 07A5                     i1l2802 038D  
                   i1l2730 028C                     i1l2722 0256                     i1l2706 0215  
                   i1l2714 0237                     i1l2650 00CA                     i1l2642 0097  
                   i1l2634 0074                     i1l2626 005D                     i1l2618 0047  
                   i1l1908 07DA                     i1l2396 0681                     i1l2388 0666  
                   i1l1924 17AC                     i1l2468 090C                     i1l2740 02BD  
                   i1l2724 025C                     i1l2716 023C                     i1l2708 021A  
                   i1l2732 0298                     i1l2652 00CF                     i1l2660 00E8  
                   i1l2644 009D                     i1l2636 007F                     i1l2628 0064  
                   i1l1950 0D7F                     i1l2398 0685                     i1l1942 17D7  
                   i1l1934 17BA                     i1l1926 17AE                     i1l1918 177E  
                   i1l2750 02E4                     i1l2742 02C3                     i1l2734 02A5  
                   i1l2718 0241                     i1l2726 027D                     i1l2670 013D  
                   i1l2662 00EE                     i1l2654 00DD                     i1l2646 00A5  
                   i1l2638 0084                     i1l1960 0D94                     i1l1952 0D85  
                   i1l1944 17EF                     i1l1928 17B2                     i1l1936 17D0  
                   i1l2752 02EB                     i1l2736 02AA                     i1l2744 02CC  
                   i1l2728 0280                     i1l2680 0163                     i1l2672 0142  
                   i1l2656 00E3                     i1l2664 0110                     i1l2648 00C5  
                   i1l1970 0DAC                     i1l1962 0D9C                     i1l1954 0D89  
                   i1l1946 17F4                     i1l2770 0339                     i1l2754 02F1  
                   i1l2746 02D1                     i1l2738 02AF                     i1l2674 0147  
                   i1l2682 0183                     i1l2762 0322                     i1l2666 011E  
                   i1l1980 0DBE                     i1l1972 0DB2                     i1l1964 0D9D  
                   i1l1956 0D8A                     i1l1948 0D78                     i1l2780 0351  
                   i1l2772 033E                     i1l2748 02D6                     i1l2756 0312  
                   i1l2684 0188                     i1l2692 01A2                     i1l2676 0155  
                   i1l2668 0130                     i1l2764 0325                     u211_25 17BB  
                   i1l1982 0DC3                     i1l1990 0DD3                     i1l1974 0DB3  
                   i1l1958 0D8F                     i1l1966 0D9F                     i1l2790 036C  
                   i1l2782 0356                     i1l2774 0341                     i1l2766 0329  
                   i1l2758 0315                     i1l2694 01A8                     i1l2686 018D  
                   i1l2678 015B                     i1l1992 0DE1                     i1l1984 0DC8  
                   i1l1976 0DB9                     u220_20 0DB2                     i1l1968 0DA7  
                   u204_20 07C6                     u212_20 17CF                     i1l2792 0371  
                   i1l2784 035C                     i1l2776 0346                     i1l2768 0331  
                   i1l2688 019B                     i1l2696 01CA                     u220_21 0DB1  
                   u204_21 07C5                     u300_21 0452                     u212_21 17CE  
                   i1l1994 0DE5                     i1l1986 0DD0                     i1l1978 0DBD  
                   i1l1898 07B9                     u300_22 0459                     i1l2794 0377  
                   i1l2786 0361                     i1l2778 034B                     i1l2698 01D8  
                   u300_23 0460                     i1l1996 0DE9                     i1l1988 0DD1  
                   i1l2796 037C                     i1l2788 0367                     i1l1998 0DED  
                   i1l2798 0382                     u221_20 0DBD                     u213_20 17D6  
                   u221_21 0DBC                     u301_21 046E                     u213_21 17D5  
                   u301_22 0475                     u301_23 047C                     u205_25 07CD  
                   u230_20 0E6C                     u222_20 0DC3                     u206_20 07DA  
                   u230_21 0E6B                     u222_21 0DC2                     u206_21 07D9  
                   u310_21 05A9                     u302_21 049A                     u310_22 05B0  
                   u302_22 04A1                     u310_23 05B7                     u302_23 04A8  
                   u214_25 17DB                     u223_20 0DC8                     u311_20 05D3  
                   u215_20 17EF                     u207_20 1775                     u223_21 0DC7  
                   u303_21 04B6                     u215_21 17EE                     u207_21 1774  
                   u303_22 04BD                     u303_23 04C4                     u231_25 0E6F  
                   u311_25 05CE                     u240_20 0EE7                     u232_20 0E82  
                   u224_20 0DE1                     u320_20 0652                     u216_20 17F4  
                   u208_20 179A                     u240_21 0EE6                     u232_21 0E81  
                   u224_21 0DE0                     u320_21 0651                     u312_21 05DF  
                   u216_21 17F3                     u312_22 05E6                     u240_23 0EE3  
                   u312_23 05ED                     u304_25 04C6                     u208_25 1795  
                   u233_20 0E86                     u225_20 0DE5                     u217_20 0D89  
                   u321_20 0666                     u313_20 05FB                     u209_20 17B2  
                   u241_21 0EFE                     u233_21 0E85                     u225_21 0DE4  
                   u217_21 0D88                     u321_21 0665                     u305_21 04EC  
                   u209_21 17B1                     u241_22 0EFF                     u305_22 04F3  
                   u241_23 0F04                     u305_23 04FA                     u241_24 0F05  
                   u241_25 0F0A                     u313_25 05F6                     u241_26 0F0B  
                   u250_20 0F85                     u242_20 0F12                     u234_20 0E8B  
                   u226_20 0E3D                     u218_20 0D8F                     u322_20 066D  
                   u330_20 0708                     u250_21 0F84                     u242_21 0F13  
                   u234_21 0E8A                     u226_21 0E3C                     u218_21 0D8E  
                   u322_21 066C                     u314_21 0607                     u306_21 0519  
                   u330_21 0707                     u242_22 0F18                     u314_22 060E  
                   u306_22 0520                     u242_23 0F19                     u314_23 0615  
                   u306_23 0527                     u226_25 0E39                     u251_20 0F8A  
                   u243_20 0F30                     u227_20 0E48                     u219_20 0D94  
                   u323_20 0673                     u331_20 0728                     u251_21 0F89  
                   u243_21 0F2F                     u235_21 0E9D                     u227_21 0E46  
                   u219_21 0D93                     u323_21 0672                     u331_21 0727  
                   u235_22 0EA4                     u235_23 0EAB                     u315_25 0617  
                   u307_25 0529                     u260_20 0FE8                     u252_20 0F90  
                   u244_20 0F55                     u236_20 0EAF                     u228_20 0E49  
                   u324_20 0685                     u340_20 079A                     u260_21 0FE7  
                   u252_21 0F8F                     u244_21 0F54                     u236_21 0EAE  
                   u324_21 0684                     u308_21 054F                     u308_22 0556  
                   u308_23 055D                     u316_25 062E                     u340_25 0795  
                   u332_25 073B                     u261_20 0FED                     u253_20 0F97  
                   u245_20 0F5A                     u237_20 0EB3                     u229_20 0E5D  
                   u325_20 0694                     u317_20 0639                     u341_20 07AA  
                   u333_20 0749                     u261_21 0FEC                     u253_21 0F96  
                   u245_21 0F59                     u237_21 0EB2                     u229_21 0E5C  
                   u317_21 0638                     u309_21 057C                     u341_21 07A9  
                   u333_21 0748                     u309_22 0583                     u309_23 058A  
                   u325_25 068F                     u262_20 0FFE                     u254_20 0F9D  
                   u238_20 0EC2                     u270_20 0A3C                     u326_20 06B1  
                   u342_20 07AE                     u350_20 004E                     u262_21 0FFD  
                   u254_21 0F9C                     u238_21 0EC1                     u270_21 0A3B  
                   u326_21 06B0                     u342_21 07AD                     u350_21 004D  
                   u246_25 0F65                     u326_25 06AD                     u318_25 063C  
                   u334_25 075D                     u430_27 0249                     u255_20 0FAF  
                   u247_20 0F70                     u271_20 0A76                     u263_20 09CB  
                   u327_20 06CB                     u319_20 064D                     u335_20 076B  
                   u351_20 0056                     u255_21 0FAE                     u247_21 0F6F  
                   u271_21 0A75                     u263_21 09CA                     u327_21 06CA  
                   u319_21 064C                     u335_21 076A                     u351_21 0055  
                   u239_25 0EC5                     u327_25 06C7                     u431_27 0292  
                   u256_20 0FBE                     u248_20 0F75                     u280_20 0AD8  
                   u264_20 09D1                     u328_20 06E9                     u360_20 00CF  
                   u352_20 005D                     u248_21 0F74                     u280_21 0AD7  
                   u264_21 09D0                     u328_21 06E8                     u360_21 00CE  
                   u352_21 005C                     u256_25 0FB9                     u272_25 0A78  
                   u336_25 0770                     u432_27 02B7                     u257_20 0FCD  
                   u249_20 0F7F                     u265_20 09D6                     u337_20 077B  
                   u329_20 0704                     u361_20 00EE                     u353_20 0064  
                   u345_20 0028                     u257_21 0FCC                     u249_21 0F7E  
                   u265_21 09D5                     u337_21 077A                     u329_21 0703  
                   u361_21 00ED                     u353_21 0063                     u345_21 0027  
                   u281_25 0ADB                     u273_25 0A81                     u433_27 02DE  
                   u425_27 0091                     u258_20 0FD6                     u290_20 0B6D  
                   u282_20 0AEC                     u274_20 0A8C                     u266_20 09F8  
                   u338_20 0781                     u370_20 021A                     u362_20 013D  
                   u354_20 006C                     u346_20 002E                     u258_21 0FD5  
                   u290_21 0B6C                     u282_21 0AEB                     u274_21 0A8B  
                   u266_21 09F7                     u338_21 0780                     u370_21 0219  
                   u362_21 013C                     u354_21 006B                     u346_21 002D  
                   u290_25 0B69                     u426_27 00D7                     u259_20 0FDB  
                   u291_20 0B84                     u283_20 0AF1                     u267_20 09FE  
                   u339_20 0785                     u371_20 023C                     u363_20 0142  
                   u355_20 0074                     u347_20 003A                     u259_21 0FDA  
                   u291_21 0B83                     u283_21 0AF0                     u267_21 09FD  
                   u339_21 0784                     u371_21 023B                     u363_21 0141  
                   u355_21 0073                     u347_21 0039                     u275_25 0A8F  
                   u427_27 014F                     u284_20 0B05                     u276_20 0AA8  
                   u268_20 0A03                     u292_20 03AE                     u380_20 02F1  
                   u372_20 0241                     u364_20 0147                     u356_20 007F  
                   u348_20 0040                     u284_21 0B04                     u276_21 0AA7  
                   u268_21 0A02                     u292_21 03AD                     u380_21 02F0  
                   u372_21 0240                     u364_21 0146                     u356_21 007E  
                   u348_21 003F                     u276_25 0AA4                     u428_27 0195  
                   u285_20 0B0C                     u277_20 0AC1                     u269_20 0A1E  
                   u293_20 03B4                     u381_20 0321                     u373_20 025C  
                   u365_20 0188                     u357_20 0084                     u349_20 0047  
                   u285_21 0B0B                     u277_21 0AC0                     u269_21 0A1D  
                   u293_21 03B3                     u381_21 0320                     u373_21 025B  
                   u365_21 0187                     u357_21 0083                     u349_21 0046  
                   u429_27 0222                     u286_20 0B12                     u278_20 0AC9  
                   u294_20 03B9                     u390_20 0377                     u382_20 0329  
                   u374_20 028C                     u366_20 018D                     u358_20 0089  
                   u286_21 0B11                     u278_21 0AC8                     u294_21 03B8  
                   u390_21 0376                     u382_21 0328                     u374_21 028B  
                   u366_21 018C                     u358_21 0088                     u287_20 0B24  
                   u295_20 03DA                     u391_20 0382                     u383_20 0331  
                   u375_20 02A5                     u367_20 01A8                     u359_20 00CA  
                   u287_21 0B23                     u295_21 03D9                     u391_21 0381  
                   u383_21 0330                     u375_21 02A4                     u367_21 01A7  
                   u359_21 00C9                     u279_25 0ACD                     u288_20 0B33  
                   u296_20 03E0                     u392_20 038D                     u384_20 033E  
                   u376_20 02AA                     u368_20 0210                     u296_21 03DF  
                   u392_21 038C                     u384_21 033D                     u376_21 02A9  
                   u368_21 020F                     u288_25 0B2E                     u289_20 0B50  
                   u297_20 03E5                     u385_20 0346                     u377_20 02AF  
                   u369_20 0215                     u289_21 0B4F                     u297_21 03E4  
                   u385_21 0345                     u377_21 02AE                     u369_21 0214  
                   u289_25 0B4C                     u298_20 03FC                     u386_20 0351  
                   u378_20 02D1                     u298_21 03FB                     u386_21 0350  
                   u378_21 02D0                     u299_20 0401                     u387_20 035C  
                   u379_20 02D6                     u299_21 0400                     u387_21 035B  
                   u379_21 02D5                     u388_20 0367                     u388_21 0366  
                   u389_20 036C                     u389_21 036B                     _SPBRGH 009A  
                   _SSPBUF 0013         ??_ESCRITURA_EEPROM 00CF           __end_of___xxtofl 07B8  
                ??___fladd 005C                  ??___fldiv 0028                  ??___flmul 0042  
                ??___fltol 00B9            _BANDERA_MODO2A0 00A6                     saved_w 007E  
             ___xxtofl@arg 007A               ___xxtofl@exp 0079               ___xxtofl@val 0070  
  __end_of__initialization 0020    LECTURA_EEPROM@DIRECCION 00CE                 ___fltol@f1 0068  
           __pcstackCOMMON 0070              __end_of_setup 090C             _OPTION_REGbits 0081  
                  ??_setup 00CE                 __pbssBANK0 006E                 __pbssBANK1 00A0  
        __end_of__Umul8_16 07DF                 __pmaintext 0B97                 __pintentry 0004  
                  _CCP1CON 0017                    _CCP2CON 001D                  ?___xxtofl 0070  
                  _VALORES 00A0                    _POT_1_E 00B3                    _POT_2_E 00B2  
                  _POT_3_E 00B1                    _POT_1_M 00A4                    _POT_4_E 00B0  
                  _POT_2_M 00A2                  _BANDERA_R 00AB                    ___fladd 0D78  
                  ___fldiv 09BA                    ___flmul 039D                    ___fltol 1764  
                  __ptext1 086E                    __ptext2 07DF                    __ptext3 084A  
                  __ptext4 0024                    __ptext5 090C                    __ptext6 06FE  
                  __ptext7 1764                    __ptext8 039D                    __ptext9 07B8  
                _T2CONbits 0012                 ??___xxtofl 0074                    clrloop0 07EF  
     end_of_initialization 0020                  _RCSTAbits 0018                  _PORTBbits 0006  
                _PORTDbits 0008                  _PORTEbits 0009                ___fladd@grs 0067  
            ___xxtofl@sign 0078                  _TRISCbits 0087                ___fldiv@grs 0034  
              ___fldiv@rem 002D                ___flmul@grs 0048                _CCP1CONbits 0017  
              _CCP2CONbits 001D                  _TXSTAbits 0098                _BAUDCTLbits 0187  
      start_initialization 0013                __end_of_map 09BA                __end_of_isr 039D  
                __Umul8_16 07B8                  ___fladd@a 0058                  ___fladd@b 0054  
                ___fldiv@a 0020                  ___fldiv@b 0024                  ___flmul@a 003E  
                ___flmul@b 003A                  ___latbits 0002  ESCRITURA_EEPROM@DIRECCION 00CF  
            __pcstackBANK0 0020              __pcstackBANK1 00B9                   ?___fladd 0054  
                 ?___fldiv 0020                   ?___flmul 003A                   ?___fltol 0068  
         _ESCRITURA_EEPROM 084A                 ?__Umul8_16 0070          interrupt_function 0004  
                 _IOCBbits 0096                  clear_ram0 07EE                   _PIE1bits 008C  
                 _PIR1bits 000C                   _PIR2bits 000D                 _ADCON0bits 001F  
               _ADCON1bits 009F                 _BANDERA_E1 00AD                 _BANDERA_E2 00AC  
               _BANDERA_L1 00AF                 _BANDERA_L2 00AE                   _WPUBbits 0095  
           _LECTURA_EEPROM 07DF                 _EECON1bits 018C                ??__Umul8_16 0072  
   __end_of_LECTURA_EEPROM 07EE                   ___xxtofl 06FE                   __ptext10 09BA  
                 __ptext11 0D78            ?_LECTURA_EEPROM 0070                _VALOR_USART 00A7  
               _INTCONbits 000B   __end_of_ESCRITURA_EEPROM 086E                   intlevel1 0000  
               _OSCCONbits 008F     __Umul8_16@multiplicand 0070              ___fladd@signs 0064  
             ___fladd@aexp 0065               ___fladd@bexp 0066       __Umul8_16@multiplier 0078  
               _SSPCONbits 0014          __Umul8_16@product 0074  
